	.section	__TEXT,__text,regular,pure_instructions
	.macosx_version_min 10, 12
	.file	1 "/usr/include/i386" "_types.h"
	.file	2 "/usr/include/sys/_types" "_ssize_t.h"
	.file	3 "/System/Library/Frameworks/Python.framework/Versions/2.7/include/python2.7" "pyport.h"
	.file	4 "/System/Library/Frameworks/Python.framework/Versions/2.7/include/python2.7" "object.h"
	.file	5 "/usr/include" "stdio.h"
	.file	6 "/usr/include/sys" "_types.h"
	.file	7 "/System/Library/Frameworks/Python.framework/Versions/2.7/include/python2.7" "methodobject.h"
	.file	8 "/System/Library/Frameworks/Python.framework/Versions/2.7/include/python2.7" "descrobject.h"
	.globl	_PyHlhdfAPI_CompareWithASCIIString
_PyHlhdfAPI_CompareWithASCIIString:     ## @PyHlhdfAPI_CompareWithASCIIString
Lfunc_begin0:
	.file	9 "pyhlcompat.c"
	.loc	9 30 0                  ## pyhlcompat.c:30:0
	.cfi_startproc
## BB#0:
	pushl	%ebp
Ltmp0:
	.cfi_def_cfa_offset 8
Ltmp1:
	.cfi_offset %ebp, -8
	movl	%esp, %ebp
Ltmp2:
	.cfi_def_cfa_register %ebp
	pushl	%edi
	pushl	%esi
	subl	$16, %esp
Ltmp3:
	.cfi_offset %esi, -16
Ltmp4:
	.cfi_offset %edi, -12
	movl	12(%ebp), %edi
	##DEBUG_VALUE: PyHlhdfAPI_CompareWithASCIIString:name <- %EDI
	movl	8(%ebp), %eax
Ltmp5:
	##DEBUG_VALUE: PyHlhdfAPI_CompareWithASCIIString:result <- -1
	##DEBUG_VALUE: PyHlhdfAPI_CompareWithASCIIString:ptr <- %EAX
	.loc	9 32 32 prologue_end    ## pyhlcompat.c:32:32
	movl	4(%eax), %ecx
	.loc	9 32 43 is_stmt 0       ## pyhlcompat.c:32:43
	movl	84(%ecx), %ecx
Ltmp6:
	.loc	9 32 7                  ## pyhlcompat.c:32:7
	testl	$134217728, %ecx        ## imm = 0x8000000
	jne	LBB0_4
Ltmp7:
## BB#1:
	##DEBUG_VALUE: PyHlhdfAPI_CompareWithASCIIString:ptr <- %EAX
	##DEBUG_VALUE: PyHlhdfAPI_CompareWithASCIIString:name <- %EDI
	.loc	9 34 67 is_stmt 1       ## pyhlcompat.c:34:67
	testl	$268435456, %ecx        ## imm = 0x10000000
	je	LBB0_5
Ltmp8:
## BB#2:
	##DEBUG_VALUE: PyHlhdfAPI_CompareWithASCIIString:ptr <- %EAX
	##DEBUG_VALUE: PyHlhdfAPI_CompareWithASCIIString:name <- %EDI
	xorl	%ecx, %ecx
Ltmp9:
	.loc	9 35 23                 ## pyhlcompat.c:35:23
	movl	%ecx, 8(%esp)
	movl	%ecx, 4(%esp)
	movl	%eax, (%esp)
	calll	_PyUnicodeUCS2_AsEncodedString
Ltmp10:
	movl	%eax, %esi
Ltmp11:
	##DEBUG_VALUE: tmp <- %ESI
	.loc	9 36 15                 ## pyhlcompat.c:36:15
	testl	%esi, %esi
	je	LBB0_5
Ltmp12:
## BB#3:
	##DEBUG_VALUE: tmp <- %ESI
	##DEBUG_VALUE: PyHlhdfAPI_CompareWithASCIIString:name <- %EDI
	.loc	9 37 25                 ## pyhlcompat.c:37:25
	movl	%esi, (%esp)
	calll	_PyString_AsString
	.loc	9 37 18 is_stmt 0 discriminator 1 ## pyhlcompat.c:37:18
	movl	%edi, 4(%esp)
	movl	%eax, (%esp)
	calll	_strcmp
	movl	%eax, %edi
Ltmp13:
	##DEBUG_VALUE: PyHlhdfAPI_CompareWithASCIIString:result <- %EDI
	.loc	9 38 9 is_stmt 1        ## pyhlcompat.c:38:9
	movl	%esi, (%esp)
	calll	_Py_DecRef
Ltmp14:
	.loc	9 45 3                  ## pyhlcompat.c:45:3
	movl	%edi, %eax
	jmp	LBB0_6
Ltmp15:
LBB0_4:
	##DEBUG_VALUE: PyHlhdfAPI_CompareWithASCIIString:ptr <- %EAX
	##DEBUG_VALUE: PyHlhdfAPI_CompareWithASCIIString:name <- %EDI
	.loc	9 43 21                 ## pyhlcompat.c:43:21
	movl	%eax, (%esp)
	calll	_PyString_AsString
Ltmp16:
	.loc	9 43 14 is_stmt 0 discriminator 1 ## pyhlcompat.c:43:14
	movl	%edi, 4(%esp)
	movl	%eax, (%esp)
	calll	_strcmp
	jmp	LBB0_6
Ltmp17:
LBB0_5:
	##DEBUG_VALUE: PyHlhdfAPI_CompareWithASCIIString:name <- %EDI
	##DEBUG_VALUE: PyHlhdfAPI_CompareWithASCIIString:result <- -1
	.loc	9 45 3 is_stmt 1        ## pyhlcompat.c:45:3
	xorl	%eax, %eax
	decl	%eax
Ltmp18:
LBB0_6:
	addl	$16, %esp
	popl	%esi
	popl	%edi
	popl	%ebp
	retl
Ltmp19:
Lfunc_end0:
	.cfi_endproc

	.globl	_PyHlhdf_StringOrUnicode_FromASCII
_PyHlhdf_StringOrUnicode_FromASCII:     ## @PyHlhdf_StringOrUnicode_FromASCII
Lfunc_begin1:
	.loc	9 49 0                  ## pyhlcompat.c:49:0
	.cfi_startproc
## BB#0:
	pushl	%ebp
Ltmp20:
	.cfi_def_cfa_offset 8
Ltmp21:
	.cfi_offset %ebp, -8
	movl	%esp, %ebp
Ltmp22:
	.cfi_def_cfa_register %ebp
	##DEBUG_VALUE: PyHlhdf_StringOrUnicode_FromASCII:buffer <- [%EBP+8]
	##DEBUG_VALUE: PyHlhdf_StringOrUnicode_FromASCII:size <- [%EBP+12]
Ltmp23:
	.loc	9 60 10 prologue_end    ## pyhlcompat.c:60:10
	popl	%ebp
	jmp	_PyString_FromStringAndSize ## TAILCALL
Ltmp24:
Lfunc_end1:
	.cfi_endproc
