	.section	__TEXT,__text,regular,pure_instructions
	.macosx_version_min 10, 12
	.file	1 "/System/Library/Frameworks/Python.framework/Versions/2.7/Extras/lib/python/numpy/core/include/numpy" "ndarraytypes.h"
	.file	2 "/usr/include/i386" "_types.h"
	.file	3 "/usr/include/sys/_types" "_ssize_t.h"
	.file	4 "/System/Library/Frameworks/Python.framework/Versions/2.7/include/python2.7" "pyport.h"
	.file	5 "/System/Library/Frameworks/Python.framework/Versions/2.7/include/python2.7" "object.h"
	.file	6 "/usr/include" "stdio.h"
	.file	7 "/usr/include/sys" "_types.h"
	.file	8 "/System/Library/Frameworks/Python.framework/Versions/2.7/include/python2.7" "methodobject.h"
	.file	9 "/System/Library/Frameworks/Python.framework/Versions/2.7/include/python2.7" "descrobject.h"
	.file	10 "/usr/include/sys/_types" "_intptr_t.h"
	.file	11 "/System/Library/Frameworks/Python.framework/Versions/2.7/Extras/lib/python/numpy/core/include/numpy" "npy_common.h"
	.globl	_getFloatFromDictionary
_getFloatFromDictionary:                ## @getFloatFromDictionary
Lfunc_begin0:
	.file	12 "pyhlhdf_common.c"
	.loc	12 33 0                 ## pyhlhdf_common.c:33:0
	.cfi_startproc
## BB#0:
	pushq	%rbp
Ltmp0:
	.cfi_def_cfa_offset 16
Ltmp1:
	.cfi_offset %rbp, -16
	movq	%rsp, %rbp
Ltmp2:
	.cfi_def_cfa_register %rbp
	pushq	%r14
	pushq	%rbx
Ltmp3:
	.cfi_offset %rbx, -32
Ltmp4:
	.cfi_offset %r14, -24
	##DEBUG_VALUE: getFloatFromDictionary:name <- %RDI
	##DEBUG_VALUE: getFloatFromDictionary:val <- %RSI
	##DEBUG_VALUE: getFloatFromDictionary:dict <- %RDX
	movq	%rsi, %r14
Ltmp5:
	##DEBUG_VALUE: getFloatFromDictionary:val <- %R14
	movq	%rdi, %rax
Ltmp6:
	##DEBUG_VALUE: getFloatFromDictionary:name <- %RAX
	.loc	12 35 10 prologue_end   ## pyhlhdf_common.c:35:10
	movq	%rdx, %rdi
Ltmp7:
	##DEBUG_VALUE: getFloatFromDictionary:dict <- %RDI
	movq	%rax, %rsi
Ltmp8:
	##DEBUG_VALUE: getFloatFromDictionary:name <- %RSI
	callq	_PyMapping_GetItemString
Ltmp9:
	movq	%rax, %rbx
Ltmp10:
	##DEBUG_VALUE: getFloatFromDictionary:pyo <- %RBX
	.loc	12 36 7                 ## pyhlhdf_common.c:36:7
	testq	%rbx, %rbx
Ltmp11:
	.loc	12 36 7 is_stmt 0       ## pyhlhdf_common.c:36:7
	je	LBB0_3
Ltmp12:
## BB#1:
	##DEBUG_VALUE: getFloatFromDictionary:pyo <- %RBX
	##DEBUG_VALUE: getFloatFromDictionary:val <- %R14
	.loc	12 37 21 is_stmt 1      ## pyhlhdf_common.c:37:21
	movq	%rbx, %rdi
	callq	_PyFloat_AsDouble
	.loc	12 37 14 is_stmt 0      ## pyhlhdf_common.c:37:14
	cvtsd2ss	%xmm0, %xmm0
	.loc	12 37 13                ## pyhlhdf_common.c:37:13
	movss	%xmm0, (%r14)
Ltmp13:
	.loc	12 38 17 is_stmt 1 discriminator 1 ## pyhlhdf_common.c:38:17
	decq	(%rbx)
	movl	$1, %r14d
Ltmp14:
	jne	LBB0_4
Ltmp15:
## BB#2:
	##DEBUG_VALUE: getFloatFromDictionary:pyo <- %RBX
	.loc	12 38 101 is_stmt 0 discriminator 3 ## pyhlhdf_common.c:38:101
	movq	8(%rbx), %rax
	.loc	12 38 64 discriminator 3 ## pyhlhdf_common.c:38:64
	movq	%rbx, %rdi
	callq	*48(%rax)
	jmp	LBB0_4
Ltmp16:
LBB0_3:
	##DEBUG_VALUE: getFloatFromDictionary:pyo <- %RBX
	##DEBUG_VALUE: getFloatFromDictionary:val <- %R14
	.loc	12 41 4 is_stmt 1       ## pyhlhdf_common.c:41:4
	callq	_PyErr_Clear
	xorl	%r14d, %r14d
Ltmp17:
LBB0_4:
	##DEBUG_VALUE: getFloatFromDictionary:pyo <- %RBX
	.loc	12 43 1                 ## pyhlhdf_common.c:43:1
	movl	%r14d, %eax
	popq	%rbx
Ltmp18:
	popq	%r14
	popq	%rbp
	retq
Ltmp19:
Lfunc_end0:
	.cfi_endproc

	.globl	_getDoubleFromDictionary
_getDoubleFromDictionary:               ## @getDoubleFromDictionary
Lfunc_begin1:
	.loc	12 49 0                 ## pyhlhdf_common.c:49:0
	.cfi_startproc
## BB#0:
	pushq	%rbp
Ltmp20:
	.cfi_def_cfa_offset 16
Ltmp21:
	.cfi_offset %rbp, -16
	movq	%rsp, %rbp
Ltmp22:
	.cfi_def_cfa_register %rbp
	pushq	%r14
	pushq	%rbx
Ltmp23:
	.cfi_offset %rbx, -32
Ltmp24:
	.cfi_offset %r14, -24
	##DEBUG_VALUE: getDoubleFromDictionary:name <- %RDI
	##DEBUG_VALUE: getDoubleFromDictionary:val <- %RSI
	##DEBUG_VALUE: getDoubleFromDictionary:dict <- %RDX
	movq	%rsi, %r14
Ltmp25:
	##DEBUG_VALUE: getDoubleFromDictionary:val <- %R14
	movq	%rdi, %rax
Ltmp26:
	##DEBUG_VALUE: getDoubleFromDictionary:name <- %RAX
	.loc	12 51 10 prologue_end   ## pyhlhdf_common.c:51:10
	movq	%rdx, %rdi
Ltmp27:
	##DEBUG_VALUE: getDoubleFromDictionary:dict <- %RDI
	movq	%rax, %rsi
Ltmp28:
	##DEBUG_VALUE: getDoubleFromDictionary:name <- %RSI
	callq	_PyMapping_GetItemString
Ltmp29:
	movq	%rax, %rbx
Ltmp30:
	##DEBUG_VALUE: getDoubleFromDictionary:pyo <- %RBX
	.loc	12 52 7                 ## pyhlhdf_common.c:52:7
	testq	%rbx, %rbx
Ltmp31:
	.loc	12 52 7 is_stmt 0       ## pyhlhdf_common.c:52:7
	je	LBB1_3
Ltmp32:
## BB#1:
	##DEBUG_VALUE: getDoubleFromDictionary:pyo <- %RBX
	##DEBUG_VALUE: getDoubleFromDictionary:val <- %R14
	.loc	12 53 14 is_stmt 1      ## pyhlhdf_common.c:53:14
	movq	%rbx, %rdi
	callq	_PyFloat_AsDouble
	.loc	12 53 13 is_stmt 0      ## pyhlhdf_common.c:53:13
	movsd	%xmm0, (%r14)
Ltmp33:
	.loc	12 54 17 is_stmt 1 discriminator 1 ## pyhlhdf_common.c:54:17
	decq	(%rbx)
	movl	$1, %r14d
Ltmp34:
	jne	LBB1_4
Ltmp35:
## BB#2:
	##DEBUG_VALUE: getDoubleFromDictionary:pyo <- %RBX
	.loc	12 54 101 is_stmt 0 discriminator 3 ## pyhlhdf_common.c:54:101
	movq	8(%rbx), %rax
	.loc	12 54 64 discriminator 3 ## pyhlhdf_common.c:54:64
	movq	%rbx, %rdi
	callq	*48(%rax)
	jmp	LBB1_4
Ltmp36:
LBB1_3:
	##DEBUG_VALUE: getDoubleFromDictionary:pyo <- %RBX
	##DEBUG_VALUE: getDoubleFromDictionary:val <- %R14
	.loc	12 57 4 is_stmt 1       ## pyhlhdf_common.c:57:4
	callq	_PyErr_Clear
	xorl	%r14d, %r14d
Ltmp37:
LBB1_4:
	##DEBUG_VALUE: getDoubleFromDictionary:pyo <- %RBX
	.loc	12 59 1                 ## pyhlhdf_common.c:59:1
	movl	%r14d, %eax
	popq	%rbx
Ltmp38:
	popq	%r14
	popq	%rbp
	retq
Ltmp39:
Lfunc_end1:
	.cfi_endproc

	.globl	_getIntegerFromDictionary
_getIntegerFromDictionary:              ## @getIntegerFromDictionary
Lfunc_begin2:
	.loc	12 65 0                 ## pyhlhdf_common.c:65:0
	.cfi_startproc
## BB#0:
	pushq	%rbp
Ltmp40:
	.cfi_def_cfa_offset 16
Ltmp41:
	.cfi_offset %rbp, -16
	movq	%rsp, %rbp
Ltmp42:
	.cfi_def_cfa_register %rbp
	pushq	%r14
	pushq	%rbx
Ltmp43:
	.cfi_offset %rbx, -32
Ltmp44:
	.cfi_offset %r14, -24
	##DEBUG_VALUE: getIntegerFromDictionary:name <- %RDI
	##DEBUG_VALUE: getIntegerFromDictionary:val <- %RSI
	##DEBUG_VALUE: getIntegerFromDictionary:dict <- %RDX
	movq	%rsi, %r14
Ltmp45:
	##DEBUG_VALUE: getIntegerFromDictionary:val <- %R14
	movq	%rdi, %rax
Ltmp46:
	##DEBUG_VALUE: getIntegerFromDictionary:name <- %RAX
	.loc	12 67 10 prologue_end   ## pyhlhdf_common.c:67:10
	movq	%rdx, %rdi
Ltmp47:
	##DEBUG_VALUE: getIntegerFromDictionary:dict <- %RDI
	movq	%rax, %rsi
Ltmp48:
	##DEBUG_VALUE: getIntegerFromDictionary:name <- %RSI
	callq	_PyMapping_GetItemString
Ltmp49:
	movq	%rax, %rbx
Ltmp50:
	##DEBUG_VALUE: getIntegerFromDictionary:pyo <- %RBX
	.loc	12 68 7                 ## pyhlhdf_common.c:68:7
	testq	%rbx, %rbx
Ltmp51:
	.loc	12 68 7 is_stmt 0       ## pyhlhdf_common.c:68:7
	je	LBB2_3
Ltmp52:
## BB#1:
	##DEBUG_VALUE: getIntegerFromDictionary:pyo <- %RBX
	##DEBUG_VALUE: getIntegerFromDictionary:val <- %R14
	.loc	12 69 14 is_stmt 1      ## pyhlhdf_common.c:69:14
	movq	%rbx, %rdi
	callq	_PyInt_AsLong
	.loc	12 69 13 is_stmt 0      ## pyhlhdf_common.c:69:13
	movl	%eax, (%r14)
Ltmp53:
	.loc	12 70 17 is_stmt 1 discriminator 1 ## pyhlhdf_common.c:70:17
	decq	(%rbx)
	movl	$1, %r14d
Ltmp54:
	jne	LBB2_4
Ltmp55:
## BB#2:
	##DEBUG_VALUE: getIntegerFromDictionary:pyo <- %RBX
	.loc	12 70 101 is_stmt 0 discriminator 3 ## pyhlhdf_common.c:70:101
	movq	8(%rbx), %rax
	.loc	12 70 64 discriminator 3 ## pyhlhdf_common.c:70:64
	movq	%rbx, %rdi
	callq	*48(%rax)
	jmp	LBB2_4
Ltmp56:
LBB2_3:
	##DEBUG_VALUE: getIntegerFromDictionary:pyo <- %RBX
	##DEBUG_VALUE: getIntegerFromDictionary:val <- %R14
	.loc	12 73 4 is_stmt 1       ## pyhlhdf_common.c:73:4
	callq	_PyErr_Clear
	xorl	%r14d, %r14d
Ltmp57:
LBB2_4:
	##DEBUG_VALUE: getIntegerFromDictionary:pyo <- %RBX
	.loc	12 75 1                 ## pyhlhdf_common.c:75:1
	movl	%r14d, %eax
	popq	%rbx
Ltmp58:
	popq	%r14
	popq	%rbp
	retq
Ltmp59:
Lfunc_end2:
	.cfi_endproc

	.globl	_getLongFromDictionary
_getLongFromDictionary:                 ## @getLongFromDictionary
Lfunc_begin3:
	.loc	12 81 0                 ## pyhlhdf_common.c:81:0
	.cfi_startproc
## BB#0:
	pushq	%rbp
Ltmp60:
	.cfi_def_cfa_offset 16
Ltmp61:
	.cfi_offset %rbp, -16
	movq	%rsp, %rbp
Ltmp62:
	.cfi_def_cfa_register %rbp
	pushq	%r14
	pushq	%rbx
Ltmp63:
	.cfi_offset %rbx, -32
Ltmp64:
	.cfi_offset %r14, -24
	##DEBUG_VALUE: getLongFromDictionary:name <- %RDI
	##DEBUG_VALUE: getLongFromDictionary:val <- %RSI
	##DEBUG_VALUE: getLongFromDictionary:dict <- %RDX
	movq	%rsi, %r14
Ltmp65:
	##DEBUG_VALUE: getLongFromDictionary:val <- %R14
	movq	%rdi, %rax
Ltmp66:
	##DEBUG_VALUE: getLongFromDictionary:name <- %RAX
	.loc	12 83 10 prologue_end   ## pyhlhdf_common.c:83:10
	movq	%rdx, %rdi
Ltmp67:
	##DEBUG_VALUE: getLongFromDictionary:dict <- %RDI
	movq	%rax, %rsi
Ltmp68:
	##DEBUG_VALUE: getLongFromDictionary:name <- %RSI
	callq	_PyMapping_GetItemString
Ltmp69:
	movq	%rax, %rbx
Ltmp70:
	##DEBUG_VALUE: getLongFromDictionary:pyo <- %RBX
	.loc	12 84 7                 ## pyhlhdf_common.c:84:7
	testq	%rbx, %rbx
Ltmp71:
	.loc	12 84 7 is_stmt 0       ## pyhlhdf_common.c:84:7
	je	LBB3_3
Ltmp72:
## BB#1:
	##DEBUG_VALUE: getLongFromDictionary:pyo <- %RBX
	##DEBUG_VALUE: getLongFromDictionary:val <- %R14
	.loc	12 85 20 is_stmt 1      ## pyhlhdf_common.c:85:20
	movq	%rbx, %rdi
	callq	_PyInt_AsLong
	.loc	12 85 13 is_stmt 0      ## pyhlhdf_common.c:85:13
	movq	%rax, (%r14)
Ltmp73:
	.loc	12 86 17 is_stmt 1 discriminator 1 ## pyhlhdf_common.c:86:17
	decq	(%rbx)
	movl	$1, %r14d
Ltmp74:
	jne	LBB3_4
Ltmp75:
## BB#2:
	##DEBUG_VALUE: getLongFromDictionary:pyo <- %RBX
	.loc	12 86 101 is_stmt 0 discriminator 3 ## pyhlhdf_common.c:86:101
	movq	8(%rbx), %rax
	.loc	12 86 64 discriminator 3 ## pyhlhdf_common.c:86:64
	movq	%rbx, %rdi
	callq	*48(%rax)
	jmp	LBB3_4
Ltmp76:
LBB3_3:
	##DEBUG_VALUE: getLongFromDictionary:pyo <- %RBX
	##DEBUG_VALUE: getLongFromDictionary:val <- %R14
	.loc	12 89 4 is_stmt 1       ## pyhlhdf_common.c:89:4
	callq	_PyErr_Clear
	xorl	%r14d, %r14d
Ltmp77:
LBB3_4:
	##DEBUG_VALUE: getLongFromDictionary:pyo <- %RBX
	.loc	12 91 1                 ## pyhlhdf_common.c:91:1
	movl	%r14d, %eax
	popq	%rbx
Ltmp78:
	popq	%r14
	popq	%rbp
	retq
Ltmp79:
Lfunc_end3:
	.cfi_endproc

	.globl	_getUnsignedLongFromDictionary
_getUnsignedLongFromDictionary:         ## @getUnsignedLongFromDictionary
Lfunc_begin4:
	.loc	12 97 0                 ## pyhlhdf_common.c:97:0
	.cfi_startproc
## BB#0:
	pushq	%rbp
Ltmp80:
	.cfi_def_cfa_offset 16
Ltmp81:
	.cfi_offset %rbp, -16
	movq	%rsp, %rbp
Ltmp82:
	.cfi_def_cfa_register %rbp
	pushq	%r14
	pushq	%rbx
Ltmp83:
	.cfi_offset %rbx, -32
Ltmp84:
	.cfi_offset %r14, -24
	##DEBUG_VALUE: getUnsignedLongFromDictionary:name <- %RDI
	##DEBUG_VALUE: getUnsignedLongFromDictionary:val <- %RSI
	##DEBUG_VALUE: getUnsignedLongFromDictionary:dict <- %RDX
	movq	%rsi, %r14
Ltmp85:
	##DEBUG_VALUE: getUnsignedLongFromDictionary:val <- %R14
	movq	%rdi, %rax
Ltmp86:
	##DEBUG_VALUE: getUnsignedLongFromDictionary:name <- %RAX
	.loc	12 99 10 prologue_end   ## pyhlhdf_common.c:99:10
	movq	%rdx, %rdi
Ltmp87:
	##DEBUG_VALUE: getUnsignedLongFromDictionary:dict <- %RDI
	movq	%rax, %rsi
Ltmp88:
	##DEBUG_VALUE: getUnsignedLongFromDictionary:name <- %RSI
	callq	_PyMapping_GetItemString
Ltmp89:
	movq	%rax, %rbx
Ltmp90:
	##DEBUG_VALUE: getUnsignedLongFromDictionary:pyo <- %RBX
	.loc	12 100 7                ## pyhlhdf_common.c:100:7
	testq	%rbx, %rbx
Ltmp91:
	.loc	12 100 7 is_stmt 0      ## pyhlhdf_common.c:100:7
	je	LBB4_3
Ltmp92:
## BB#1:
	##DEBUG_VALUE: getUnsignedLongFromDictionary:pyo <- %RBX
	##DEBUG_VALUE: getUnsignedLongFromDictionary:val <- %R14
	.loc	12 101 29 is_stmt 1     ## pyhlhdf_common.c:101:29
	movq	%rbx, %rdi
	callq	_PyInt_AsLong
	.loc	12 101 13 is_stmt 0     ## pyhlhdf_common.c:101:13
	movq	%rax, (%r14)
Ltmp93:
	.loc	12 102 17 is_stmt 1 discriminator 1 ## pyhlhdf_common.c:102:17
	decq	(%rbx)
	movl	$1, %r14d
Ltmp94:
	jne	LBB4_4
Ltmp95:
## BB#2:
	##DEBUG_VALUE: getUnsignedLongFromDictionary:pyo <- %RBX
	.loc	12 102 101 is_stmt 0 discriminator 3 ## pyhlhdf_common.c:102:101
	movq	8(%rbx), %rax
	.loc	12 102 64 discriminator 3 ## pyhlhdf_common.c:102:64
	movq	%rbx, %rdi
	callq	*48(%rax)
	jmp	LBB4_4
Ltmp96:
LBB4_3:
	##DEBUG_VALUE: getUnsignedLongFromDictionary:pyo <- %RBX
	##DEBUG_VALUE: getUnsignedLongFromDictionary:val <- %R14
	.loc	12 105 4 is_stmt 1      ## pyhlhdf_common.c:105:4
	callq	_PyErr_Clear
	xorl	%r14d, %r14d
Ltmp97:
LBB4_4:
	##DEBUG_VALUE: getUnsignedLongFromDictionary:pyo <- %RBX
	.loc	12 107 1                ## pyhlhdf_common.c:107:1
	movl	%r14d, %eax
	popq	%rbx
Ltmp98:
	popq	%r14
	popq	%rbp
	retq
Ltmp99:
Lfunc_end4:
	.cfi_endproc

	.globl	_getFloatFromObject
_getFloatFromObject:                    ## @getFloatFromObject
Lfunc_begin5:
	.loc	12 114 0                ## pyhlhdf_common.c:114:0
	.cfi_startproc
## BB#0:
	pushq	%rbp
Ltmp100:
	.cfi_def_cfa_offset 16
Ltmp101:
	.cfi_offset %rbp, -16
	movq	%rsp, %rbp
Ltmp102:
	.cfi_def_cfa_register %rbp
	pushq	%r14
	pushq	%rbx
Ltmp103:
	.cfi_offset %rbx, -32
Ltmp104:
	.cfi_offset %r14, -24
	##DEBUG_VALUE: getFloatFromObject:name <- %RDI
	##DEBUG_VALUE: getFloatFromObject:val <- %RSI
	##DEBUG_VALUE: getFloatFromObject:dict <- %RDX
	movq	%rsi, %r14
Ltmp105:
	##DEBUG_VALUE: getFloatFromObject:val <- %R14
	movq	%rdi, %rax
Ltmp106:
	##DEBUG_VALUE: getFloatFromObject:name <- %RAX
	.loc	12 116 10 prologue_end  ## pyhlhdf_common.c:116:10
	movq	%rdx, %rdi
Ltmp107:
	##DEBUG_VALUE: getFloatFromObject:dict <- %RDI
	movq	%rax, %rsi
Ltmp108:
	##DEBUG_VALUE: getFloatFromObject:name <- %RSI
	callq	_PyObject_GetAttrString
Ltmp109:
	movq	%rax, %rbx
Ltmp110:
	##DEBUG_VALUE: getFloatFromObject:pyo <- %RBX
	.loc	12 117 7                ## pyhlhdf_common.c:117:7
	testq	%rbx, %rbx
Ltmp111:
	.loc	12 117 7 is_stmt 0      ## pyhlhdf_common.c:117:7
	je	LBB5_3
Ltmp112:
## BB#1:
	##DEBUG_VALUE: getFloatFromObject:pyo <- %RBX
	##DEBUG_VALUE: getFloatFromObject:val <- %R14
	.loc	12 118 21 is_stmt 1     ## pyhlhdf_common.c:118:21
	movq	%rbx, %rdi
	callq	_PyFloat_AsDouble
	.loc	12 118 14 is_stmt 0     ## pyhlhdf_common.c:118:14
	cvtsd2ss	%xmm0, %xmm0
	.loc	12 118 13               ## pyhlhdf_common.c:118:13
	movss	%xmm0, (%r14)
Ltmp113:
	.loc	12 119 17 is_stmt 1 discriminator 1 ## pyhlhdf_common.c:119:17
	decq	(%rbx)
	movl	$1, %r14d
Ltmp114:
	jne	LBB5_4
Ltmp115:
## BB#2:
	##DEBUG_VALUE: getFloatFromObject:pyo <- %RBX
	.loc	12 119 101 is_stmt 0 discriminator 3 ## pyhlhdf_common.c:119:101
	movq	8(%rbx), %rax
	.loc	12 119 64 discriminator 3 ## pyhlhdf_common.c:119:64
	movq	%rbx, %rdi
	callq	*48(%rax)
	jmp	LBB5_4
Ltmp116:
LBB5_3:
	##DEBUG_VALUE: getFloatFromObject:pyo <- %RBX
	##DEBUG_VALUE: getFloatFromObject:val <- %R14
	.loc	12 122 4 is_stmt 1      ## pyhlhdf_common.c:122:4
	callq	_PyErr_Clear
	xorl	%r14d, %r14d
Ltmp117:
LBB5_4:
	##DEBUG_VALUE: getFloatFromObject:pyo <- %RBX
	.loc	12 124 1                ## pyhlhdf_common.c:124:1
	movl	%r14d, %eax
	popq	%rbx
Ltmp118:
	popq	%r14
	popq	%rbp
	retq
Ltmp119:
Lfunc_end5:
	.cfi_endproc

	.globl	_getDoubleFromObject
_getDoubleFromObject:                   ## @getDoubleFromObject
Lfunc_begin6:
	.loc	12 130 0                ## pyhlhdf_common.c:130:0
	.cfi_startproc
## BB#0:
	pushq	%rbp
Ltmp120:
	.cfi_def_cfa_offset 16
Ltmp121:
	.cfi_offset %rbp, -16
	movq	%rsp, %rbp
Ltmp122:
	.cfi_def_cfa_register %rbp
	pushq	%r14
	pushq	%rbx
Ltmp123:
	.cfi_offset %rbx, -32
Ltmp124:
	.cfi_offset %r14, -24
	##DEBUG_VALUE: getDoubleFromObject:name <- %RDI
	##DEBUG_VALUE: getDoubleFromObject:val <- %RSI
	##DEBUG_VALUE: getDoubleFromObject:dict <- %RDX
	movq	%rsi, %r14
Ltmp125:
	##DEBUG_VALUE: getDoubleFromObject:val <- %R14
	movq	%rdi, %rax
Ltmp126:
	##DEBUG_VALUE: getDoubleFromObject:name <- %RAX
	.loc	12 132 10 prologue_end  ## pyhlhdf_common.c:132:10
	movq	%rdx, %rdi
Ltmp127:
	##DEBUG_VALUE: getDoubleFromObject:dict <- %RDI
	movq	%rax, %rsi
Ltmp128:
	##DEBUG_VALUE: getDoubleFromObject:name <- %RSI
	callq	_PyObject_GetAttrString
Ltmp129:
	movq	%rax, %rbx
Ltmp130:
	##DEBUG_VALUE: getDoubleFromObject:pyo <- %RBX
	.loc	12 133 7                ## pyhlhdf_common.c:133:7
	testq	%rbx, %rbx
Ltmp131:
	.loc	12 133 7 is_stmt 0      ## pyhlhdf_common.c:133:7
	je	LBB6_3
Ltmp132:
## BB#1:
	##DEBUG_VALUE: getDoubleFromObject:pyo <- %RBX
	##DEBUG_VALUE: getDoubleFromObject:val <- %R14
	.loc	12 134 14 is_stmt 1     ## pyhlhdf_common.c:134:14
	movq	%rbx, %rdi
	callq	_PyFloat_AsDouble
	.loc	12 134 13 is_stmt 0     ## pyhlhdf_common.c:134:13
	movsd	%xmm0, (%r14)
Ltmp133:
	.loc	12 135 17 is_stmt 1 discriminator 1 ## pyhlhdf_common.c:135:17
	decq	(%rbx)
	movl	$1, %r14d
Ltmp134:
	jne	LBB6_4
Ltmp135:
## BB#2:
	##DEBUG_VALUE: getDoubleFromObject:pyo <- %RBX
	.loc	12 135 101 is_stmt 0 discriminator 3 ## pyhlhdf_common.c:135:101
	movq	8(%rbx), %rax
	.loc	12 135 64 discriminator 3 ## pyhlhdf_common.c:135:64
	movq	%rbx, %rdi
	callq	*48(%rax)
	jmp	LBB6_4
Ltmp136:
LBB6_3:
	##DEBUG_VALUE: getDoubleFromObject:pyo <- %RBX
	##DEBUG_VALUE: getDoubleFromObject:val <- %R14
	.loc	12 138 4 is_stmt 1      ## pyhlhdf_common.c:138:4
	callq	_PyErr_Clear
	xorl	%r14d, %r14d
Ltmp137:
LBB6_4:
	##DEBUG_VALUE: getDoubleFromObject:pyo <- %RBX
	.loc	12 140 1                ## pyhlhdf_common.c:140:1
	movl	%r14d, %eax
	popq	%rbx
Ltmp138:
	popq	%r14
	popq	%rbp
	retq
Ltmp139:
Lfunc_end6:
	.cfi_endproc

	.globl	_getIntegerFromObject
_getIntegerFromObject:                  ## @getIntegerFromObject
Lfunc_begin7:
	.loc	12 146 0                ## pyhlhdf_common.c:146:0
	.cfi_startproc
## BB#0:
	pushq	%rbp
Ltmp140:
	.cfi_def_cfa_offset 16
Ltmp141:
	.cfi_offset %rbp, -16
	movq	%rsp, %rbp
Ltmp142:
	.cfi_def_cfa_register %rbp
	pushq	%r14
	pushq	%rbx
Ltmp143:
	.cfi_offset %rbx, -32
Ltmp144:
	.cfi_offset %r14, -24
	##DEBUG_VALUE: getIntegerFromObject:name <- %RDI
	##DEBUG_VALUE: getIntegerFromObject:val <- %RSI
	##DEBUG_VALUE: getIntegerFromObject:dict <- %RDX
	movq	%rsi, %r14
Ltmp145:
	##DEBUG_VALUE: getIntegerFromObject:val <- %R14
	movq	%rdi, %rax
Ltmp146:
	##DEBUG_VALUE: getIntegerFromObject:name <- %RAX
	.loc	12 148 10 prologue_end  ## pyhlhdf_common.c:148:10
	movq	%rdx, %rdi
Ltmp147:
	##DEBUG_VALUE: getIntegerFromObject:dict <- %RDI
	movq	%rax, %rsi
Ltmp148:
	##DEBUG_VALUE: getIntegerFromObject:name <- %RSI
	callq	_PyObject_GetAttrString
Ltmp149:
	movq	%rax, %rbx
Ltmp150:
	##DEBUG_VALUE: getIntegerFromObject:pyo <- %RBX
	.loc	12 149 7                ## pyhlhdf_common.c:149:7
	testq	%rbx, %rbx
Ltmp151:
	.loc	12 149 7 is_stmt 0      ## pyhlhdf_common.c:149:7
	je	LBB7_3
Ltmp152:
## BB#1:
	##DEBUG_VALUE: getIntegerFromObject:pyo <- %RBX
	##DEBUG_VALUE: getIntegerFromObject:val <- %R14
	.loc	12 150 14 is_stmt 1     ## pyhlhdf_common.c:150:14
	movq	%rbx, %rdi
	callq	_PyInt_AsLong
	.loc	12 150 13 is_stmt 0     ## pyhlhdf_common.c:150:13
	movl	%eax, (%r14)
Ltmp153:
	.loc	12 151 17 is_stmt 1 discriminator 1 ## pyhlhdf_common.c:151:17
	decq	(%rbx)
	movl	$1, %r14d
Ltmp154:
	jne	LBB7_4
Ltmp155:
## BB#2:
	##DEBUG_VALUE: getIntegerFromObject:pyo <- %RBX
	.loc	12 151 101 is_stmt 0 discriminator 3 ## pyhlhdf_common.c:151:101
	movq	8(%rbx), %rax
	.loc	12 151 64 discriminator 3 ## pyhlhdf_common.c:151:64
	movq	%rbx, %rdi
	callq	*48(%rax)
	jmp	LBB7_4
Ltmp156:
LBB7_3:
	##DEBUG_VALUE: getIntegerFromObject:pyo <- %RBX
	##DEBUG_VALUE: getIntegerFromObject:val <- %R14
	.loc	12 154 4 is_stmt 1      ## pyhlhdf_common.c:154:4
	callq	_PyErr_Clear
	xorl	%r14d, %r14d
Ltmp157:
LBB7_4:
	##DEBUG_VALUE: getIntegerFromObject:pyo <- %RBX
	.loc	12 156 1                ## pyhlhdf_common.c:156:1
	movl	%r14d, %eax
	popq	%rbx
Ltmp158:
	popq	%r14
	popq	%rbp
	retq
Ltmp159:
Lfunc_end7:
	.cfi_endproc

	.globl	_getLongFromObject
_getLongFromObject:                     ## @getLongFromObject
Lfunc_begin8:
	.loc	12 162 0                ## pyhlhdf_common.c:162:0
	.cfi_startproc
## BB#0:
	pushq	%rbp
Ltmp160:
	.cfi_def_cfa_offset 16
Ltmp161:
	.cfi_offset %rbp, -16
	movq	%rsp, %rbp
Ltmp162:
	.cfi_def_cfa_register %rbp
	pushq	%r14
	pushq	%rbx
Ltmp163:
	.cfi_offset %rbx, -32
Ltmp164:
	.cfi_offset %r14, -24
	##DEBUG_VALUE: getLongFromObject:name <- %RDI
	##DEBUG_VALUE: getLongFromObject:val <- %RSI
	##DEBUG_VALUE: getLongFromObject:dict <- %RDX
	movq	%rsi, %r14
Ltmp165:
	##DEBUG_VALUE: getLongFromObject:val <- %R14
	movq	%rdi, %rax
Ltmp166:
	##DEBUG_VALUE: getLongFromObject:name <- %RAX
	.loc	12 164 10 prologue_end  ## pyhlhdf_common.c:164:10
	movq	%rdx, %rdi
Ltmp167:
	##DEBUG_VALUE: getLongFromObject:dict <- %RDI
	movq	%rax, %rsi
Ltmp168:
	##DEBUG_VALUE: getLongFromObject:name <- %RSI
	callq	_PyObject_GetAttrString
Ltmp169:
	movq	%rax, %rbx
Ltmp170:
	##DEBUG_VALUE: getLongFromObject:pyo <- %RBX
	.loc	12 165 7                ## pyhlhdf_common.c:165:7
	testq	%rbx, %rbx
Ltmp171:
	.loc	12 165 7 is_stmt 0      ## pyhlhdf_common.c:165:7
	je	LBB8_3
Ltmp172:
## BB#1:
	##DEBUG_VALUE: getLongFromObject:pyo <- %RBX
	##DEBUG_VALUE: getLongFromObject:val <- %R14
	.loc	12 166 20 is_stmt 1     ## pyhlhdf_common.c:166:20
	movq	%rbx, %rdi
	callq	_PyInt_AsLong
	.loc	12 166 13 is_stmt 0     ## pyhlhdf_common.c:166:13
	movq	%rax, (%r14)
Ltmp173:
	.loc	12 167 17 is_stmt 1 discriminator 1 ## pyhlhdf_common.c:167:17
	decq	(%rbx)
	movl	$1, %r14d
Ltmp174:
	jne	LBB8_4
Ltmp175:
## BB#2:
	##DEBUG_VALUE: getLongFromObject:pyo <- %RBX
	.loc	12 167 101 is_stmt 0 discriminator 3 ## pyhlhdf_common.c:167:101
	movq	8(%rbx), %rax
	.loc	12 167 64 discriminator 3 ## pyhlhdf_common.c:167:64
	movq	%rbx, %rdi
	callq	*48(%rax)
	jmp	LBB8_4
Ltmp176:
LBB8_3:
	##DEBUG_VALUE: getLongFromObject:pyo <- %RBX
	##DEBUG_VALUE: getLongFromObject:val <- %R14
	.loc	12 170 4 is_stmt 1      ## pyhlhdf_common.c:170:4
	callq	_PyErr_Clear
	xorl	%r14d, %r14d
Ltmp177:
LBB8_4:
	##DEBUG_VALUE: getLongFromObject:pyo <- %RBX
	.loc	12 172 1                ## pyhlhdf_common.c:172:1
	movl	%r14d, %eax
	popq	%rbx
Ltmp178:
	popq	%r14
	popq	%rbp
	retq
Ltmp179:
Lfunc_end8:
	.cfi_endproc

	.globl	_getUnsignedLongFromObject
_getUnsignedLongFromObject:             ## @getUnsignedLongFromObject
Lfunc_begin9:
	.loc	12 178 0                ## pyhlhdf_common.c:178:0
	.cfi_startproc
## BB#0:
	pushq	%rbp
Ltmp180:
	.cfi_def_cfa_offset 16
Ltmp181:
	.cfi_offset %rbp, -16
	movq	%rsp, %rbp
Ltmp182:
	.cfi_def_cfa_register %rbp
	pushq	%r14
	pushq	%rbx
Ltmp183:
	.cfi_offset %rbx, -32
Ltmp184:
	.cfi_offset %r14, -24
	##DEBUG_VALUE: getUnsignedLongFromObject:name <- %RDI
	##DEBUG_VALUE: getUnsignedLongFromObject:val <- %RSI
	##DEBUG_VALUE: getUnsignedLongFromObject:dict <- %RDX
	movq	%rsi, %r14
Ltmp185:
	##DEBUG_VALUE: getUnsignedLongFromObject:val <- %R14
	movq	%rdi, %rax
Ltmp186:
	##DEBUG_VALUE: getUnsignedLongFromObject:name <- %RAX
	.loc	12 180 10 prologue_end  ## pyhlhdf_common.c:180:10
	movq	%rdx, %rdi
Ltmp187:
	##DEBUG_VALUE: getUnsignedLongFromObject:dict <- %RDI
	movq	%rax, %rsi
Ltmp188:
	##DEBUG_VALUE: getUnsignedLongFromObject:name <- %RSI
	callq	_PyObject_GetAttrString
Ltmp189:
	movq	%rax, %rbx
Ltmp190:
	##DEBUG_VALUE: getUnsignedLongFromObject:pyo <- %RBX
	.loc	12 181 7                ## pyhlhdf_common.c:181:7
	testq	%rbx, %rbx
Ltmp191:
	.loc	12 181 7 is_stmt 0      ## pyhlhdf_common.c:181:7
	je	LBB9_3
Ltmp192:
## BB#1:
	##DEBUG_VALUE: getUnsignedLongFromObject:pyo <- %RBX
	##DEBUG_VALUE: getUnsignedLongFromObject:val <- %R14
	.loc	12 182 29 is_stmt 1     ## pyhlhdf_common.c:182:29
	movq	%rbx, %rdi
	callq	_PyInt_AsLong
	.loc	12 182 13 is_stmt 0     ## pyhlhdf_common.c:182:13
	movq	%rax, (%r14)
Ltmp193:
	.loc	12 183 17 is_stmt 1 discriminator 1 ## pyhlhdf_common.c:183:17
	decq	(%rbx)
	movl	$1, %r14d
Ltmp194:
	jne	LBB9_4
Ltmp195:
## BB#2:
	##DEBUG_VALUE: getUnsignedLongFromObject:pyo <- %RBX
	.loc	12 183 101 is_stmt 0 discriminator 3 ## pyhlhdf_common.c:183:101
	movq	8(%rbx), %rax
	.loc	12 183 64 discriminator 3 ## pyhlhdf_common.c:183:64
	movq	%rbx, %rdi
	callq	*48(%rax)
	jmp	LBB9_4
Ltmp196:
LBB9_3:
	##DEBUG_VALUE: getUnsignedLongFromObject:pyo <- %RBX
	##DEBUG_VALUE: getUnsignedLongFromObject:val <- %R14
	.loc	12 186 4 is_stmt 1      ## pyhlhdf_common.c:186:4
	callq	_PyErr_Clear
	xorl	%r14d, %r14d
Ltmp197:
LBB9_4:
	##DEBUG_VALUE: getUnsignedLongFromObject:pyo <- %RBX
	.loc	12 188 1                ## pyhlhdf_common.c:188:1
	movl	%r14d, %eax
	popq	%rbx
Ltmp198:
	popq	%r14
	popq	%rbp
	retq
Ltmp199:
Lfunc_end9:
	.cfi_endproc

	.globl	_getShortFromObject
_getShortFromObject:                    ## @getShortFromObject
Lfunc_begin10:
	.loc	12 195 0                ## pyhlhdf_common.c:195:0
	.cfi_startproc
## BB#0:
	pushq	%rbp
Ltmp200:
	.cfi_def_cfa_offset 16
Ltmp201:
	.cfi_offset %rbp, -16
	movq	%rsp, %rbp
Ltmp202:
	.cfi_def_cfa_register %rbp
	pushq	%r14
	pushq	%rbx
Ltmp203:
	.cfi_offset %rbx, -32
Ltmp204:
	.cfi_offset %r14, -24
	##DEBUG_VALUE: getShortFromObject:name <- %RDI
	##DEBUG_VALUE: getShortFromObject:val <- %RSI
	##DEBUG_VALUE: getShortFromObject:dict <- %RDX
	movq	%rsi, %r14
Ltmp205:
	##DEBUG_VALUE: getShortFromObject:val <- %R14
	movq	%rdi, %rax
Ltmp206:
	##DEBUG_VALUE: getShortFromObject:name <- %RAX
	.loc	12 197 10 prologue_end  ## pyhlhdf_common.c:197:10
	movq	%rdx, %rdi
Ltmp207:
	##DEBUG_VALUE: getShortFromObject:dict <- %RDI
	movq	%rax, %rsi
Ltmp208:
	##DEBUG_VALUE: getShortFromObject:name <- %RSI
	callq	_PyObject_GetAttrString
Ltmp209:
	movq	%rax, %rbx
Ltmp210:
	##DEBUG_VALUE: getShortFromObject:pyo <- %RBX
	.loc	12 198 7                ## pyhlhdf_common.c:198:7
	testq	%rbx, %rbx
Ltmp211:
	.loc	12 198 7 is_stmt 0      ## pyhlhdf_common.c:198:7
	je	LBB10_3
Ltmp212:
## BB#1:
	##DEBUG_VALUE: getShortFromObject:pyo <- %RBX
	##DEBUG_VALUE: getShortFromObject:val <- %R14
	.loc	12 199 21 is_stmt 1     ## pyhlhdf_common.c:199:21
	movq	%rbx, %rdi
	callq	_PyInt_AsLong
	.loc	12 199 13 is_stmt 0     ## pyhlhdf_common.c:199:13
	movw	%ax, (%r14)
Ltmp213:
	.loc	12 200 17 is_stmt 1 discriminator 1 ## pyhlhdf_common.c:200:17
	decq	(%rbx)
	movl	$1, %r14d
Ltmp214:
	jne	LBB10_4
Ltmp215:
## BB#2:
	##DEBUG_VALUE: getShortFromObject:pyo <- %RBX
	.loc	12 200 101 is_stmt 0 discriminator 3 ## pyhlhdf_common.c:200:101
	movq	8(%rbx), %rax
	.loc	12 200 64 discriminator 3 ## pyhlhdf_common.c:200:64
	movq	%rbx, %rdi
	callq	*48(%rax)
	jmp	LBB10_4
Ltmp216:
LBB10_3:
	##DEBUG_VALUE: getShortFromObject:pyo <- %RBX
	##DEBUG_VALUE: getShortFromObject:val <- %R14
	.loc	12 203 4 is_stmt 1      ## pyhlhdf_common.c:203:4
	callq	_PyErr_Clear
	xorl	%r14d, %r14d
Ltmp217:
LBB10_4:
	##DEBUG_VALUE: getShortFromObject:pyo <- %RBX
	.loc	12 205 1                ## pyhlhdf_common.c:205:1
	movl	%r14d, %eax
	popq	%rbx
Ltmp218:
	popq	%r14
	popq	%rbp
	retq
Ltmp219:
Lfunc_end10:
	.cfi_endproc

	.globl	_getByteFromObject
_getByteFromObject:                     ## @getByteFromObject
Lfunc_begin11:
	.loc	12 211 0                ## pyhlhdf_common.c:211:0
	.cfi_startproc
## BB#0:
	pushq	%rbp
Ltmp220:
	.cfi_def_cfa_offset 16
Ltmp221:
	.cfi_offset %rbp, -16
	movq	%rsp, %rbp
Ltmp222:
	.cfi_def_cfa_register %rbp
	pushq	%r14
	pushq	%rbx
Ltmp223:
	.cfi_offset %rbx, -32
Ltmp224:
	.cfi_offset %r14, -24
	##DEBUG_VALUE: getByteFromObject:name <- %RDI
	##DEBUG_VALUE: getByteFromObject:val <- %RSI
	##DEBUG_VALUE: getByteFromObject:dict <- %RDX
	movq	%rsi, %r14
Ltmp225:
	##DEBUG_VALUE: getByteFromObject:val <- %R14
	movq	%rdi, %rax
Ltmp226:
	##DEBUG_VALUE: getByteFromObject:name <- %RAX
	.loc	12 213 10 prologue_end  ## pyhlhdf_common.c:213:10
	movq	%rdx, %rdi
Ltmp227:
	##DEBUG_VALUE: getByteFromObject:dict <- %RDI
	movq	%rax, %rsi
Ltmp228:
	##DEBUG_VALUE: getByteFromObject:name <- %RSI
	callq	_PyObject_GetAttrString
Ltmp229:
	movq	%rax, %rbx
Ltmp230:
	##DEBUG_VALUE: getByteFromObject:pyo <- %RBX
	.loc	12 214 7                ## pyhlhdf_common.c:214:7
	testq	%rbx, %rbx
Ltmp231:
	.loc	12 214 7 is_stmt 0      ## pyhlhdf_common.c:214:7
	je	LBB11_3
Ltmp232:
## BB#1:
	##DEBUG_VALUE: getByteFromObject:pyo <- %RBX
	##DEBUG_VALUE: getByteFromObject:val <- %R14
	.loc	12 215 29 is_stmt 1     ## pyhlhdf_common.c:215:29
	movq	%rbx, %rdi
	callq	_PyInt_AsLong
	.loc	12 215 13 is_stmt 0     ## pyhlhdf_common.c:215:13
	movb	%al, (%r14)
Ltmp233:
	.loc	12 216 17 is_stmt 1 discriminator 1 ## pyhlhdf_common.c:216:17
	decq	(%rbx)
	movl	$1, %r14d
Ltmp234:
	jne	LBB11_4
Ltmp235:
## BB#2:
	##DEBUG_VALUE: getByteFromObject:pyo <- %RBX
	.loc	12 216 101 is_stmt 0 discriminator 3 ## pyhlhdf_common.c:216:101
	movq	8(%rbx), %rax
	.loc	12 216 64 discriminator 3 ## pyhlhdf_common.c:216:64
	movq	%rbx, %rdi
	callq	*48(%rax)
	jmp	LBB11_4
Ltmp236:
LBB11_3:
	##DEBUG_VALUE: getByteFromObject:pyo <- %RBX
	##DEBUG_VALUE: getByteFromObject:val <- %R14
	.loc	12 219 4 is_stmt 1      ## pyhlhdf_common.c:219:4
	callq	_PyErr_Clear
	xorl	%r14d, %r14d
Ltmp237:
LBB11_4:
	##DEBUG_VALUE: getByteFromObject:pyo <- %RBX
	.loc	12 221 1                ## pyhlhdf_common.c:221:1
	movl	%r14d, %eax
	popq	%rbx
Ltmp238:
	popq	%r14
	popq	%rbp
	retq
Ltmp239:
Lfunc_end11:
	.cfi_endproc

	.globl	_getStringFromObject
_getStringFromObject:                   ## @getStringFromObject
Lfunc_begin12:
	.loc	12 227 0                ## pyhlhdf_common.c:227:0
	.cfi_startproc
## BB#0:
	pushq	%rbp
Ltmp240:
	.cfi_def_cfa_offset 16
Ltmp241:
	.cfi_offset %rbp, -16
	movq	%rsp, %rbp
Ltmp242:
	.cfi_def_cfa_register %rbp
	pushq	%r14
	pushq	%rbx
Ltmp243:
	.cfi_offset %rbx, -32
Ltmp244:
	.cfi_offset %r14, -24
	##DEBUG_VALUE: getStringFromObject:name <- %RDI
	##DEBUG_VALUE: getStringFromObject:dict <- %RSI
	movq	%rdi, %rax
Ltmp245:
	##DEBUG_VALUE: getStringFromObject:name <- %RAX
	.loc	12 230 8 prologue_end   ## pyhlhdf_common.c:230:8
	movq	%rsi, %rdi
Ltmp246:
	##DEBUG_VALUE: getStringFromObject:dict <- %RDI
	movq	%rax, %rsi
Ltmp247:
	##DEBUG_VALUE: getStringFromObject:name <- %RSI
	callq	_PyObject_GetAttrString
Ltmp248:
	movq	%rax, %rbx
Ltmp249:
	##DEBUG_VALUE: getStringFromObject:pyo <- %RBX
	.loc	12 231 7                ## pyhlhdf_common.c:231:7
	testq	%rbx, %rbx
	je	LBB12_1
Ltmp250:
## BB#2:
	##DEBUG_VALUE: getStringFromObject:pyo <- %RBX
	.loc	12 232 21               ## pyhlhdf_common.c:232:21
	movq	%rbx, %rdi
	callq	_PyString_AsString
	.loc	12 232 14 is_stmt 0 discriminator 1 ## pyhlhdf_common.c:232:14
	movq	%rax, %rdi
	callq	_strdup
	movq	%rax, %r14
Ltmp251:
	##DEBUG_VALUE: getStringFromObject:retstr <- %R14
	.loc	12 233 17 is_stmt 1 discriminator 1 ## pyhlhdf_common.c:233:17
	decq	(%rbx)
	jne	LBB12_4
Ltmp252:
## BB#3:
	##DEBUG_VALUE: getStringFromObject:retstr <- %R14
	##DEBUG_VALUE: getStringFromObject:pyo <- %RBX
	.loc	12 233 101 is_stmt 0 discriminator 3 ## pyhlhdf_common.c:233:101
	movq	8(%rbx), %rax
	.loc	12 233 64 discriminator 3 ## pyhlhdf_common.c:233:64
	movq	%rbx, %rdi
	callq	*48(%rax)
	jmp	LBB12_4
Ltmp253:
LBB12_1:
	##DEBUG_VALUE: getStringFromObject:pyo <- %RBX
	xorl	%r14d, %r14d
Ltmp254:
	##DEBUG_VALUE: getStringFromObject:retstr <- %R14
LBB12_4:
	##DEBUG_VALUE: getStringFromObject:retstr <- %R14
	##DEBUG_VALUE: getStringFromObject:pyo <- %RBX
	##DEBUG_VALUE: getStringFromObject:retstr <- %R14
	.loc	12 235 4 is_stmt 1      ## pyhlhdf_common.c:235:4
	callq	_PyErr_Clear
	.loc	12 236 4                ## pyhlhdf_common.c:236:4
	movq	%r14, %rax
	popq	%rbx
Ltmp255:
	popq	%r14
Ltmp256:
	popq	%rbp
	retq
Ltmp257:
Lfunc_end12:
	.cfi_endproc

	.globl	_getIdxIntegerFromTuple
_getIdxIntegerFromTuple:                ## @getIdxIntegerFromTuple
Lfunc_begin13:
	.loc	12 243 0                ## pyhlhdf_common.c:243:0
	.cfi_startproc
## BB#0:
	pushq	%rbp
Ltmp258:
	.cfi_def_cfa_offset 16
Ltmp259:
	.cfi_offset %rbp, -16
	movq	%rsp, %rbp
Ltmp260:
	.cfi_def_cfa_register %rbp
	pushq	%r14
	pushq	%rbx
Ltmp261:
	.cfi_offset %rbx, -32
Ltmp262:
	.cfi_offset %r14, -24
	##DEBUG_VALUE: getIdxIntegerFromTuple:idx <- %EDI
	##DEBUG_VALUE: getIdxIntegerFromTuple:val <- %RSI
	##DEBUG_VALUE: getIdxIntegerFromTuple:tuple <- %RDX
	movq	%rsi, %r14
Ltmp263:
	##DEBUG_VALUE: getIdxIntegerFromTuple:val <- %R14
	.loc	12 245 33 prologue_end  ## pyhlhdf_common.c:245:33
	movslq	%edi, %rsi
	.loc	12 245 8 is_stmt 0      ## pyhlhdf_common.c:245:8
	movq	%rdx, %rdi
Ltmp264:
	##DEBUG_VALUE: getIdxIntegerFromTuple:tuple <- %RDI
	callq	_PySequence_GetItem
Ltmp265:
	movq	%rax, %rbx
Ltmp266:
	##DEBUG_VALUE: getIdxIntegerFromTuple:pyo <- %RBX
	.loc	12 246 7 is_stmt 1      ## pyhlhdf_common.c:246:7
	testq	%rbx, %rbx
Ltmp267:
	.loc	12 246 7 is_stmt 0      ## pyhlhdf_common.c:246:7
	je	LBB13_3
Ltmp268:
## BB#1:
	##DEBUG_VALUE: getIdxIntegerFromTuple:pyo <- %RBX
	##DEBUG_VALUE: getIdxIntegerFromTuple:val <- %R14
	.loc	12 247 14 is_stmt 1     ## pyhlhdf_common.c:247:14
	movq	%rbx, %rdi
	callq	_PyInt_AsLong
	.loc	12 247 13 is_stmt 0     ## pyhlhdf_common.c:247:13
	movl	%eax, (%r14)
Ltmp269:
	.loc	12 248 17 is_stmt 1 discriminator 1 ## pyhlhdf_common.c:248:17
	decq	(%rbx)
	movl	$1, %r14d
Ltmp270:
	jne	LBB13_4
Ltmp271:
## BB#2:
	##DEBUG_VALUE: getIdxIntegerFromTuple:pyo <- %RBX
	.loc	12 248 101 is_stmt 0 discriminator 3 ## pyhlhdf_common.c:248:101
	movq	8(%rbx), %rax
	.loc	12 248 64 discriminator 3 ## pyhlhdf_common.c:248:64
	movq	%rbx, %rdi
	callq	*48(%rax)
	jmp	LBB13_4
Ltmp272:
LBB13_3:
	##DEBUG_VALUE: getIdxIntegerFromTuple:pyo <- %RBX
	##DEBUG_VALUE: getIdxIntegerFromTuple:val <- %R14
	.loc	12 251 4 is_stmt 1      ## pyhlhdf_common.c:251:4
	callq	_PyErr_Clear
	xorl	%r14d, %r14d
Ltmp273:
LBB13_4:
	##DEBUG_VALUE: getIdxIntegerFromTuple:pyo <- %RBX
	.loc	12 253 1                ## pyhlhdf_common.c:253:1
	movl	%r14d, %eax
	popq	%rbx
Ltmp274:
	popq	%r14
	popq	%rbp
	retq
Ltmp275:
Lfunc_end13:
	.cfi_endproc

	.globl	_getIdxDoubleFromTuple
_getIdxDoubleFromTuple:                 ## @getIdxDoubleFromTuple
Lfunc_begin14:
	.loc	12 259 0                ## pyhlhdf_common.c:259:0
	.cfi_startproc
## BB#0:
	pushq	%rbp
Ltmp276:
	.cfi_def_cfa_offset 16
Ltmp277:
	.cfi_offset %rbp, -16
	movq	%rsp, %rbp
Ltmp278:
	.cfi_def_cfa_register %rbp
	pushq	%r14
	pushq	%rbx
Ltmp279:
	.cfi_offset %rbx, -32
Ltmp280:
	.cfi_offset %r14, -24
	##DEBUG_VALUE: getIdxDoubleFromTuple:idx <- %EDI
	##DEBUG_VALUE: getIdxDoubleFromTuple:val <- %RSI
	##DEBUG_VALUE: getIdxDoubleFromTuple:tuple <- %RDX
	movq	%rsi, %r14
Ltmp281:
	##DEBUG_VALUE: getIdxDoubleFromTuple:val <- %R14
	.loc	12 261 33 prologue_end  ## pyhlhdf_common.c:261:33
	movslq	%edi, %rsi
	.loc	12 261 8 is_stmt 0      ## pyhlhdf_common.c:261:8
	movq	%rdx, %rdi
Ltmp282:
	##DEBUG_VALUE: getIdxDoubleFromTuple:tuple <- %RDI
	callq	_PySequence_GetItem
Ltmp283:
	movq	%rax, %rbx
Ltmp284:
	##DEBUG_VALUE: getIdxDoubleFromTuple:pyo <- %RBX
	.loc	12 262 7 is_stmt 1      ## pyhlhdf_common.c:262:7
	testq	%rbx, %rbx
Ltmp285:
	.loc	12 262 7 is_stmt 0      ## pyhlhdf_common.c:262:7
	je	LBB14_3
Ltmp286:
## BB#1:
	##DEBUG_VALUE: getIdxDoubleFromTuple:pyo <- %RBX
	##DEBUG_VALUE: getIdxDoubleFromTuple:val <- %R14
	.loc	12 263 14 is_stmt 1     ## pyhlhdf_common.c:263:14
	movq	%rbx, %rdi
	callq	_PyFloat_AsDouble
	.loc	12 263 13 is_stmt 0     ## pyhlhdf_common.c:263:13
	movsd	%xmm0, (%r14)
Ltmp287:
	.loc	12 264 17 is_stmt 1 discriminator 1 ## pyhlhdf_common.c:264:17
	decq	(%rbx)
	movl	$1, %r14d
Ltmp288:
	jne	LBB14_4
Ltmp289:
## BB#2:
	##DEBUG_VALUE: getIdxDoubleFromTuple:pyo <- %RBX
	.loc	12 264 101 is_stmt 0 discriminator 3 ## pyhlhdf_common.c:264:101
	movq	8(%rbx), %rax
	.loc	12 264 64 discriminator 3 ## pyhlhdf_common.c:264:64
	movq	%rbx, %rdi
	callq	*48(%rax)
	jmp	LBB14_4
Ltmp290:
LBB14_3:
	##DEBUG_VALUE: getIdxDoubleFromTuple:pyo <- %RBX
	##DEBUG_VALUE: getIdxDoubleFromTuple:val <- %R14
	.loc	12 267 4 is_stmt 1      ## pyhlhdf_common.c:267:4
	callq	_PyErr_Clear
	xorl	%r14d, %r14d
Ltmp291:
LBB14_4:
	##DEBUG_VALUE: getIdxDoubleFromTuple:pyo <- %RBX
	.loc	12 269 1                ## pyhlhdf_common.c:269:1
	movl	%r14d, %eax
	popq	%rbx
Ltmp292:
	popq	%r14
	popq	%rbp
	retq
Ltmp293:
Lfunc_end14:
	.cfi_endproc

	.globl	_getStringFromDictionary
_getStringFromDictionary:               ## @getStringFromDictionary
Lfunc_begin15:
	.loc	12 275 0                ## pyhlhdf_common.c:275:0
	.cfi_startproc
## BB#0:
	pushq	%rbp
Ltmp294:
	.cfi_def_cfa_offset 16
Ltmp295:
	.cfi_offset %rbp, -16
	movq	%rsp, %rbp
Ltmp296:
	.cfi_def_cfa_register %rbp
	pushq	%r14
	pushq	%rbx
Ltmp297:
	.cfi_offset %rbx, -32
Ltmp298:
	.cfi_offset %r14, -24
	##DEBUG_VALUE: getStringFromDictionary:name <- %RDI
	##DEBUG_VALUE: getStringFromDictionary:dict <- %RSI
	movq	%rdi, %rax
Ltmp299:
	##DEBUG_VALUE: getStringFromDictionary:name <- %RAX
	.loc	12 278 8 prologue_end   ## pyhlhdf_common.c:278:8
	movq	%rsi, %rdi
Ltmp300:
	##DEBUG_VALUE: getStringFromDictionary:dict <- %RDI
	movq	%rax, %rsi
Ltmp301:
	##DEBUG_VALUE: getStringFromDictionary:name <- %RSI
	callq	_PyMapping_GetItemString
Ltmp302:
	movq	%rax, %rbx
Ltmp303:
	##DEBUG_VALUE: getStringFromDictionary:pyo <- %RBX
	.loc	12 279 7                ## pyhlhdf_common.c:279:7
	testq	%rbx, %rbx
	je	LBB15_1
Ltmp304:
## BB#2:
	##DEBUG_VALUE: getStringFromDictionary:pyo <- %RBX
	.loc	12 280 21               ## pyhlhdf_common.c:280:21
	movq	%rbx, %rdi
	callq	_PyString_AsString
	.loc	12 280 14 is_stmt 0 discriminator 1 ## pyhlhdf_common.c:280:14
	movq	%rax, %rdi
	callq	_strdup
	movq	%rax, %r14
Ltmp305:
	##DEBUG_VALUE: getStringFromDictionary:retstr <- %R14
	.loc	12 281 17 is_stmt 1 discriminator 1 ## pyhlhdf_common.c:281:17
	decq	(%rbx)
	jne	LBB15_4
Ltmp306:
## BB#3:
	##DEBUG_VALUE: getStringFromDictionary:retstr <- %R14
	##DEBUG_VALUE: getStringFromDictionary:pyo <- %RBX
	.loc	12 281 101 is_stmt 0 discriminator 3 ## pyhlhdf_common.c:281:101
	movq	8(%rbx), %rax
	.loc	12 281 64 discriminator 3 ## pyhlhdf_common.c:281:64
	movq	%rbx, %rdi
	callq	*48(%rax)
	jmp	LBB15_4
Ltmp307:
LBB15_1:
	##DEBUG_VALUE: getStringFromDictionary:pyo <- %RBX
	xorl	%r14d, %r14d
Ltmp308:
	##DEBUG_VALUE: getStringFromDictionary:retstr <- %R14
LBB15_4:
	##DEBUG_VALUE: getStringFromDictionary:retstr <- %R14
	##DEBUG_VALUE: getStringFromDictionary:pyo <- %RBX
	##DEBUG_VALUE: getStringFromDictionary:retstr <- %R14
	.loc	12 283 4 is_stmt 1      ## pyhlhdf_common.c:283:4
	callq	_PyErr_Clear
	.loc	12 284 4                ## pyhlhdf_common.c:284:4
	movq	%r14, %rax
	popq	%rbx
Ltmp309:
	popq	%r14
Ltmp310:
	popq	%rbp
	retq
Ltmp311:
Lfunc_end15:
	.cfi_endproc

	.globl	_setMappingInteger
_setMappingInteger:                     ## @setMappingInteger
Lfunc_begin16:
	.loc	12 291 0                ## pyhlhdf_common.c:291:0
	.cfi_startproc
## BB#0:
	pushq	%rbp
Ltmp312:
	.cfi_def_cfa_offset 16
Ltmp313:
	.cfi_offset %rbp, -16
	movq	%rsp, %rbp
Ltmp314:
	.cfi_def_cfa_register %rbp
	pushq	%r15
	pushq	%r14
	pushq	%r12
	pushq	%rbx
Ltmp315:
	.cfi_offset %rbx, -48
Ltmp316:
	.cfi_offset %r12, -40
Ltmp317:
	.cfi_offset %r14, -32
Ltmp318:
	.cfi_offset %r15, -24
	##DEBUG_VALUE: setMappingInteger:info <- %RDI
	##DEBUG_VALUE: setMappingInteger:keyname <- %RSI
	##DEBUG_VALUE: setMappingInteger:in_value <- %EDX
	movq	%rsi, %r15
Ltmp319:
	##DEBUG_VALUE: setMappingInteger:keyname <- %R15
	movq	%rdi, %r12
Ltmp320:
	##DEBUG_VALUE: setMappingInteger:ret <- 1
	##DEBUG_VALUE: setMappingInteger:info <- %R12
	.loc	12 294 39 prologue_end  ## pyhlhdf_common.c:294:39
	movslq	%edx, %rdi
	.loc	12 294 24 is_stmt 0     ## pyhlhdf_common.c:294:24
	callq	_PyInt_FromLong
Ltmp321:
	movq	%rax, %r14
Ltmp322:
	##DEBUG_VALUE: setMappingInteger:out_value <- %R14
	xorl	%ebx, %ebx
Ltmp323:
	.loc	12 295 8 is_stmt 1      ## pyhlhdf_common.c:295:8
	testq	%r14, %r14
	je	LBB16_3
Ltmp324:
## BB#1:
	##DEBUG_VALUE: setMappingInteger:out_value <- %R14
	##DEBUG_VALUE: setMappingInteger:info <- %R12
	##DEBUG_VALUE: setMappingInteger:keyname <- %R15
	.loc	12 298 7                ## pyhlhdf_common.c:298:7
	movq	%r12, %rdi
	movq	%r15, %rsi
	movq	%r14, %rdx
	callq	_PyMapping_SetItemString
Ltmp325:
	##DEBUG_VALUE: setMappingInteger:ret <- 0
	.loc	12 298 7 is_stmt 0      ## pyhlhdf_common.c:298:7
	xorl	%ebx, %ebx
	cmpl	$-1, %eax
	setne	%bl
Ltmp326:
	##DEBUG_VALUE: setMappingInteger:ret <- %EBX
	.loc	12 301 14 is_stmt 1 discriminator 1 ## pyhlhdf_common.c:301:14
	decq	(%r14)
	jne	LBB16_3
Ltmp327:
## BB#2:
	##DEBUG_VALUE: setMappingInteger:ret <- %EBX
	##DEBUG_VALUE: setMappingInteger:out_value <- %R14
	##DEBUG_VALUE: setMappingInteger:info <- %R12
	##DEBUG_VALUE: setMappingInteger:keyname <- %R15
	.loc	12 301 110 is_stmt 0 discriminator 3 ## pyhlhdf_common.c:301:110
	movq	8(%r14), %rax
	.loc	12 301 67 discriminator 3 ## pyhlhdf_common.c:301:67
	movq	%r14, %rdi
	callq	*48(%rax)
Ltmp328:
LBB16_3:
	##DEBUG_VALUE: setMappingInteger:out_value <- %R14
	##DEBUG_VALUE: setMappingInteger:info <- %R12
	##DEBUG_VALUE: setMappingInteger:keyname <- %R15
	.loc	12 304 1 is_stmt 1      ## pyhlhdf_common.c:304:1
	movl	%ebx, %eax
	popq	%rbx
	popq	%r12
Ltmp329:
	popq	%r14
Ltmp330:
	popq	%r15
Ltmp331:
	popq	%rbp
	retq
Ltmp332:
Lfunc_end16:
	.cfi_endproc

	.globl	_setMappingDouble
_setMappingDouble:                      ## @setMappingDouble
Lfunc_begin17:
	.loc	12 310 0                ## pyhlhdf_common.c:310:0
	.cfi_startproc
## BB#0:
	pushq	%rbp
Ltmp333:
	.cfi_def_cfa_offset 16
Ltmp334:
	.cfi_offset %rbp, -16
	movq	%rsp, %rbp
Ltmp335:
	.cfi_def_cfa_register %rbp
	pushq	%r15
	pushq	%r14
	pushq	%r12
	pushq	%rbx
Ltmp336:
	.cfi_offset %rbx, -48
Ltmp337:
	.cfi_offset %r12, -40
Ltmp338:
	.cfi_offset %r14, -32
Ltmp339:
	.cfi_offset %r15, -24
	##DEBUG_VALUE: setMappingDouble:info <- %RDI
	##DEBUG_VALUE: setMappingDouble:keyname <- %RSI
	##DEBUG_VALUE: setMappingDouble:in_value <- %XMM0
	movq	%rsi, %r15
Ltmp340:
	##DEBUG_VALUE: setMappingDouble:keyname <- %R15
	movq	%rdi, %r12
Ltmp341:
	##DEBUG_VALUE: setMappingDouble:ret <- 1
	##DEBUG_VALUE: setMappingDouble:info <- %R12
	.loc	12 313 24 prologue_end  ## pyhlhdf_common.c:313:24
	callq	_PyFloat_FromDouble
Ltmp342:
	movq	%rax, %r14
Ltmp343:
	##DEBUG_VALUE: setMappingDouble:out_value <- %R14
	xorl	%ebx, %ebx
Ltmp344:
	.loc	12 314 8                ## pyhlhdf_common.c:314:8
	testq	%r14, %r14
	je	LBB17_3
Ltmp345:
## BB#1:
	##DEBUG_VALUE: setMappingDouble:out_value <- %R14
	##DEBUG_VALUE: setMappingDouble:info <- %R12
	##DEBUG_VALUE: setMappingDouble:keyname <- %R15
	.loc	12 317 7                ## pyhlhdf_common.c:317:7
	movq	%r12, %rdi
	movq	%r15, %rsi
	movq	%r14, %rdx
	callq	_PyMapping_SetItemString
Ltmp346:
	##DEBUG_VALUE: setMappingDouble:ret <- 0
	.loc	12 317 7 is_stmt 0      ## pyhlhdf_common.c:317:7
	xorl	%ebx, %ebx
	cmpl	$-1, %eax
	setne	%bl
Ltmp347:
	##DEBUG_VALUE: setMappingDouble:ret <- %EBX
	.loc	12 320 14 is_stmt 1 discriminator 1 ## pyhlhdf_common.c:320:14
	decq	(%r14)
	jne	LBB17_3
Ltmp348:
## BB#2:
	##DEBUG_VALUE: setMappingDouble:ret <- %EBX
	##DEBUG_VALUE: setMappingDouble:out_value <- %R14
	##DEBUG_VALUE: setMappingDouble:info <- %R12
	##DEBUG_VALUE: setMappingDouble:keyname <- %R15
	.loc	12 320 110 is_stmt 0 discriminator 3 ## pyhlhdf_common.c:320:110
	movq	8(%r14), %rax
	.loc	12 320 67 discriminator 3 ## pyhlhdf_common.c:320:67
	movq	%r14, %rdi
	callq	*48(%rax)
Ltmp349:
LBB17_3:
	##DEBUG_VALUE: setMappingDouble:out_value <- %R14
	##DEBUG_VALUE: setMappingDouble:info <- %R12
	##DEBUG_VALUE: setMappingDouble:keyname <- %R15
	.loc	12 323 1 is_stmt 1      ## pyhlhdf_common.c:323:1
	movl	%ebx, %eax
	popq	%rbx
	popq	%r12
Ltmp350:
	popq	%r14
Ltmp351:
	popq	%r15
Ltmp352:
	popq	%rbp
	retq
Ltmp353:
Lfunc_end17:
	.cfi_endproc

	.globl	_setMappingFloat
_setMappingFloat:                       ## @setMappingFloat
Lfunc_begin18:
	.loc	12 329 0                ## pyhlhdf_common.c:329:0
	.cfi_startproc
## BB#0:
	pushq	%rbp
Ltmp354:
	.cfi_def_cfa_offset 16
Ltmp355:
	.cfi_offset %rbp, -16
	movq	%rsp, %rbp
Ltmp356:
	.cfi_def_cfa_register %rbp
	pushq	%r15
	pushq	%r14
	pushq	%r12
	pushq	%rbx
Ltmp357:
	.cfi_offset %rbx, -48
Ltmp358:
	.cfi_offset %r12, -40
Ltmp359:
	.cfi_offset %r14, -32
Ltmp360:
	.cfi_offset %r15, -24
	##DEBUG_VALUE: setMappingFloat:info <- %RDI
	##DEBUG_VALUE: setMappingFloat:keyname <- %RSI
	##DEBUG_VALUE: setMappingFloat:in_value <- %XMM0
	movq	%rsi, %r15
Ltmp361:
	##DEBUG_VALUE: setMappingFloat:keyname <- %R15
	movq	%rdi, %r12
Ltmp362:
	##DEBUG_VALUE: setMappingFloat:ret <- 1
	##DEBUG_VALUE: setMappingFloat:info <- %R12
	.loc	12 332 43 prologue_end  ## pyhlhdf_common.c:332:43
	cvtss2sd	%xmm0, %xmm0
Ltmp363:
	.loc	12 332 24 is_stmt 0     ## pyhlhdf_common.c:332:24
	callq	_PyFloat_FromDouble
	movq	%rax, %r14
Ltmp364:
	##DEBUG_VALUE: setMappingFloat:out_value <- %R14
	xorl	%ebx, %ebx
Ltmp365:
	.loc	12 333 8 is_stmt 1      ## pyhlhdf_common.c:333:8
	testq	%r14, %r14
	je	LBB18_3
Ltmp366:
## BB#1:
	##DEBUG_VALUE: setMappingFloat:out_value <- %R14
	##DEBUG_VALUE: setMappingFloat:info <- %R12
	##DEBUG_VALUE: setMappingFloat:keyname <- %R15
	.loc	12 336 7                ## pyhlhdf_common.c:336:7
	movq	%r12, %rdi
	movq	%r15, %rsi
	movq	%r14, %rdx
	callq	_PyMapping_SetItemString
Ltmp367:
	##DEBUG_VALUE: setMappingFloat:ret <- 0
	.loc	12 336 7 is_stmt 0      ## pyhlhdf_common.c:336:7
	xorl	%ebx, %ebx
	cmpl	$-1, %eax
	setne	%bl
Ltmp368:
	##DEBUG_VALUE: setMappingFloat:ret <- %EBX
	.loc	12 339 14 is_stmt 1 discriminator 1 ## pyhlhdf_common.c:339:14
	decq	(%r14)
	jne	LBB18_3
Ltmp369:
## BB#2:
	##DEBUG_VALUE: setMappingFloat:ret <- %EBX
	##DEBUG_VALUE: setMappingFloat:out_value <- %R14
	##DEBUG_VALUE: setMappingFloat:info <- %R12
	##DEBUG_VALUE: setMappingFloat:keyname <- %R15
	.loc	12 339 110 is_stmt 0 discriminator 3 ## pyhlhdf_common.c:339:110
	movq	8(%r14), %rax
	.loc	12 339 67 discriminator 3 ## pyhlhdf_common.c:339:67
	movq	%r14, %rdi
	callq	*48(%rax)
Ltmp370:
LBB18_3:
	##DEBUG_VALUE: setMappingFloat:out_value <- %R14
	##DEBUG_VALUE: setMappingFloat:info <- %R12
	##DEBUG_VALUE: setMappingFloat:keyname <- %R15
	.loc	12 342 1 is_stmt 1      ## pyhlhdf_common.c:342:1
	movl	%ebx, %eax
	popq	%rbx
	popq	%r12
Ltmp371:
	popq	%r14
Ltmp372:
	popq	%r15
Ltmp373:
	popq	%rbp
	retq
Ltmp374:
Lfunc_end18:
	.cfi_endproc

	.globl	_setMappingString
_setMappingString:                      ## @setMappingString
Lfunc_begin19:
	.loc	12 348 0                ## pyhlhdf_common.c:348:0
	.cfi_startproc
## BB#0:
	pushq	%rbp
Ltmp375:
	.cfi_def_cfa_offset 16
Ltmp376:
	.cfi_offset %rbp, -16
	movq	%rsp, %rbp
Ltmp377:
	.cfi_def_cfa_register %rbp
	pushq	%r15
	pushq	%r14
	pushq	%r12
	pushq	%rbx
Ltmp378:
	.cfi_offset %rbx, -48
Ltmp379:
	.cfi_offset %r12, -40
Ltmp380:
	.cfi_offset %r14, -32
Ltmp381:
	.cfi_offset %r15, -24
	##DEBUG_VALUE: setMappingString:info <- %RDI
	##DEBUG_VALUE: setMappingString:keyname <- %RSI
	##DEBUG_VALUE: setMappingString:in_string <- %RDX
	movq	%rsi, %r15
Ltmp382:
	##DEBUG_VALUE: setMappingString:keyname <- %R15
	movq	%rdi, %r12
Ltmp383:
	##DEBUG_VALUE: setMappingString:ret <- 1
	##DEBUG_VALUE: setMappingString:info <- %R12
	.loc	12 350 25 prologue_end  ## pyhlhdf_common.c:350:25
	movq	%rdx, %rdi
Ltmp384:
	##DEBUG_VALUE: setMappingString:in_string <- %RDI
	callq	_PyString_FromString
Ltmp385:
	movq	%rax, %r14
Ltmp386:
	##DEBUG_VALUE: setMappingString:out_string <- %R14
	xorl	%ebx, %ebx
Ltmp387:
	.loc	12 351 8                ## pyhlhdf_common.c:351:8
	testq	%r14, %r14
	je	LBB19_3
Ltmp388:
## BB#1:
	##DEBUG_VALUE: setMappingString:out_string <- %R14
	##DEBUG_VALUE: setMappingString:info <- %R12
	##DEBUG_VALUE: setMappingString:keyname <- %R15
	.loc	12 354 7                ## pyhlhdf_common.c:354:7
	movq	%r12, %rdi
	movq	%r15, %rsi
	movq	%r14, %rdx
	callq	_PyMapping_SetItemString
Ltmp389:
	##DEBUG_VALUE: setMappingString:ret <- 0
	.loc	12 354 7 is_stmt 0      ## pyhlhdf_common.c:354:7
	xorl	%ebx, %ebx
	cmpl	$-1, %eax
	setne	%bl
Ltmp390:
	##DEBUG_VALUE: setMappingString:ret <- %EBX
	.loc	12 357 14 is_stmt 1 discriminator 1 ## pyhlhdf_common.c:357:14
	decq	(%r14)
	jne	LBB19_3
Ltmp391:
## BB#2:
	##DEBUG_VALUE: setMappingString:ret <- %EBX
	##DEBUG_VALUE: setMappingString:out_string <- %R14
	##DEBUG_VALUE: setMappingString:info <- %R12
	##DEBUG_VALUE: setMappingString:keyname <- %R15
	.loc	12 357 112 is_stmt 0 discriminator 3 ## pyhlhdf_common.c:357:112
	movq	8(%r14), %rax
	.loc	12 357 68 discriminator 3 ## pyhlhdf_common.c:357:68
	movq	%r14, %rdi
	callq	*48(%rax)
Ltmp392:
LBB19_3:
	##DEBUG_VALUE: setMappingString:out_string <- %R14
	##DEBUG_VALUE: setMappingString:info <- %R12
	##DEBUG_VALUE: setMappingString:keyname <- %R15
	.loc	12 360 1 is_stmt 1      ## pyhlhdf_common.c:360:1
	movl	%ebx, %eax
	popq	%rbx
	popq	%r12
Ltmp393:
	popq	%r14
Ltmp394:
	popq	%r15
Ltmp395:
	popq	%rbp
	retq
Ltmp396:
Lfunc_end19:
	.cfi_endproc

	.globl	_setMappingString_Length
_setMappingString_Length:               ## @setMappingString_Length
Lfunc_begin20:
	.loc	12 366 0                ## pyhlhdf_common.c:366:0
	.cfi_startproc
## BB#0:
	pushq	%rbp
Ltmp397:
	.cfi_def_cfa_offset 16
Ltmp398:
	.cfi_offset %rbp, -16
	movq	%rsp, %rbp
Ltmp399:
	.cfi_def_cfa_register %rbp
	pushq	%r15
	pushq	%r14
	pushq	%r12
	pushq	%rbx
Ltmp400:
	.cfi_offset %rbx, -48
Ltmp401:
	.cfi_offset %r12, -40
Ltmp402:
	.cfi_offset %r14, -32
Ltmp403:
	.cfi_offset %r15, -24
	##DEBUG_VALUE: setMappingString_Length:info <- %RDI
	##DEBUG_VALUE: setMappingString_Length:keyname <- %RSI
	##DEBUG_VALUE: setMappingString_Length:in_string <- %RDX
	##DEBUG_VALUE: setMappingString_Length:len <- %ECX
	movq	%rsi, %r15
Ltmp404:
	##DEBUG_VALUE: setMappingString_Length:keyname <- %R15
	movq	%rdi, %r12
Ltmp405:
	##DEBUG_VALUE: setMappingString_Length:ret <- 1
	##DEBUG_VALUE: setMappingString_Length:info <- %R12
	.loc	12 368 62 prologue_end  ## pyhlhdf_common.c:368:62
	movslq	%ecx, %rsi
	.loc	12 368 25 is_stmt 0     ## pyhlhdf_common.c:368:25
	movq	%rdx, %rdi
Ltmp406:
	##DEBUG_VALUE: setMappingString_Length:in_string <- %RDI
	callq	_PyString_FromStringAndSize
Ltmp407:
	movq	%rax, %r14
Ltmp408:
	##DEBUG_VALUE: setMappingString_Length:out_string <- %R14
	xorl	%ebx, %ebx
Ltmp409:
	.loc	12 369 8 is_stmt 1      ## pyhlhdf_common.c:369:8
	testq	%r14, %r14
	je	LBB20_3
Ltmp410:
## BB#1:
	##DEBUG_VALUE: setMappingString_Length:out_string <- %R14
	##DEBUG_VALUE: setMappingString_Length:info <- %R12
	##DEBUG_VALUE: setMappingString_Length:keyname <- %R15
	.loc	12 372 7                ## pyhlhdf_common.c:372:7
	movq	%r12, %rdi
	movq	%r15, %rsi
	movq	%r14, %rdx
	callq	_PyMapping_SetItemString
Ltmp411:
	##DEBUG_VALUE: setMappingString_Length:ret <- 0
	.loc	12 372 7 is_stmt 0      ## pyhlhdf_common.c:372:7
	xorl	%ebx, %ebx
	cmpl	$-1, %eax
	setne	%bl
Ltmp412:
	##DEBUG_VALUE: setMappingString_Length:ret <- %EBX
	.loc	12 375 14 is_stmt 1 discriminator 1 ## pyhlhdf_common.c:375:14
	decq	(%r14)
	jne	LBB20_3
Ltmp413:
## BB#2:
	##DEBUG_VALUE: setMappingString_Length:ret <- %EBX
	##DEBUG_VALUE: setMappingString_Length:out_string <- %R14
	##DEBUG_VALUE: setMappingString_Length:info <- %R12
	##DEBUG_VALUE: setMappingString_Length:keyname <- %R15
	.loc	12 375 112 is_stmt 0 discriminator 3 ## pyhlhdf_common.c:375:112
	movq	8(%r14), %rax
	.loc	12 375 68 discriminator 3 ## pyhlhdf_common.c:375:68
	movq	%r14, %rdi
	callq	*48(%rax)
Ltmp414:
LBB20_3:
	##DEBUG_VALUE: setMappingString_Length:out_string <- %R14
	##DEBUG_VALUE: setMappingString_Length:info <- %R12
	##DEBUG_VALUE: setMappingString_Length:keyname <- %R15
	.loc	12 378 1 is_stmt 1      ## pyhlhdf_common.c:378:1
	movl	%ebx, %eax
	popq	%rbx
	popq	%r12
Ltmp415:
	popq	%r14
Ltmp416:
	popq	%r15
Ltmp417:
	popq	%rbp
	retq
Ltmp418:
Lfunc_end20:
	.cfi_endproc

	.globl	_setObjectInteger
_setObjectInteger:                      ## @setObjectInteger
Lfunc_begin21:
	.loc	12 384 0                ## pyhlhdf_common.c:384:0
	.cfi_startproc
## BB#0:
	pushq	%rbp
Ltmp419:
	.cfi_def_cfa_offset 16
Ltmp420:
	.cfi_offset %rbp, -16
	movq	%rsp, %rbp
Ltmp421:
	.cfi_def_cfa_register %rbp
	pushq	%r15
	pushq	%r14
	pushq	%r12
	pushq	%rbx
Ltmp422:
	.cfi_offset %rbx, -48
Ltmp423:
	.cfi_offset %r12, -40
Ltmp424:
	.cfi_offset %r14, -32
Ltmp425:
	.cfi_offset %r15, -24
	##DEBUG_VALUE: setObjectInteger:info <- %RDI
	##DEBUG_VALUE: setObjectInteger:keyname <- %RSI
	##DEBUG_VALUE: setObjectInteger:in_value <- %EDX
	movq	%rsi, %r15
Ltmp426:
	##DEBUG_VALUE: setObjectInteger:keyname <- %R15
	movq	%rdi, %r12
Ltmp427:
	##DEBUG_VALUE: setObjectInteger:ret <- 1
	##DEBUG_VALUE: setObjectInteger:info <- %R12
	.loc	12 387 39 prologue_end  ## pyhlhdf_common.c:387:39
	movslq	%edx, %rdi
	.loc	12 387 24 is_stmt 0     ## pyhlhdf_common.c:387:24
	callq	_PyInt_FromLong
Ltmp428:
	movq	%rax, %r14
Ltmp429:
	##DEBUG_VALUE: setObjectInteger:out_value <- %R14
	xorl	%ebx, %ebx
Ltmp430:
	.loc	12 388 8 is_stmt 1      ## pyhlhdf_common.c:388:8
	testq	%r14, %r14
	je	LBB21_3
Ltmp431:
## BB#1:
	##DEBUG_VALUE: setObjectInteger:out_value <- %R14
	##DEBUG_VALUE: setObjectInteger:info <- %R12
	##DEBUG_VALUE: setObjectInteger:keyname <- %R15
	.loc	12 391 7                ## pyhlhdf_common.c:391:7
	movq	%r12, %rdi
	movq	%r15, %rsi
	movq	%r14, %rdx
	callq	_PyObject_SetAttrString
Ltmp432:
	##DEBUG_VALUE: setObjectInteger:ret <- 0
	.loc	12 391 7 is_stmt 0      ## pyhlhdf_common.c:391:7
	xorl	%ebx, %ebx
	cmpl	$-1, %eax
	setne	%bl
Ltmp433:
	##DEBUG_VALUE: setObjectInteger:ret <- %EBX
	.loc	12 394 14 is_stmt 1 discriminator 1 ## pyhlhdf_common.c:394:14
	decq	(%r14)
	jne	LBB21_3
Ltmp434:
## BB#2:
	##DEBUG_VALUE: setObjectInteger:ret <- %EBX
	##DEBUG_VALUE: setObjectInteger:out_value <- %R14
	##DEBUG_VALUE: setObjectInteger:info <- %R12
	##DEBUG_VALUE: setObjectInteger:keyname <- %R15
	.loc	12 394 110 is_stmt 0 discriminator 3 ## pyhlhdf_common.c:394:110
	movq	8(%r14), %rax
	.loc	12 394 67 discriminator 3 ## pyhlhdf_common.c:394:67
	movq	%r14, %rdi
	callq	*48(%rax)
Ltmp435:
LBB21_3:
	##DEBUG_VALUE: setObjectInteger:out_value <- %R14
	##DEBUG_VALUE: setObjectInteger:info <- %R12
	##DEBUG_VALUE: setObjectInteger:keyname <- %R15
	.loc	12 397 1 is_stmt 1      ## pyhlhdf_common.c:397:1
	movl	%ebx, %eax
	popq	%rbx
	popq	%r12
Ltmp436:
	popq	%r14
Ltmp437:
	popq	%r15
Ltmp438:
	popq	%rbp
	retq
Ltmp439:
Lfunc_end21:
	.cfi_endproc

	.globl	_setObjectLong
_setObjectLong:                         ## @setObjectLong
Lfunc_begin22:
	.loc	12 403 0                ## pyhlhdf_common.c:403:0
	.cfi_startproc
## BB#0:
	pushq	%rbp
Ltmp440:
	.cfi_def_cfa_offset 16
Ltmp441:
	.cfi_offset %rbp, -16
	movq	%rsp, %rbp
Ltmp442:
	.cfi_def_cfa_register %rbp
	pushq	%r15
	pushq	%r14
	pushq	%r12
	pushq	%rbx
Ltmp443:
	.cfi_offset %rbx, -48
Ltmp444:
	.cfi_offset %r12, -40
Ltmp445:
	.cfi_offset %r14, -32
Ltmp446:
	.cfi_offset %r15, -24
	##DEBUG_VALUE: setObjectLong:info <- %RDI
	##DEBUG_VALUE: setObjectLong:keyname <- %RSI
	##DEBUG_VALUE: setObjectLong:in_value <- %RDX
	movq	%rsi, %r15
Ltmp447:
	##DEBUG_VALUE: setObjectLong:keyname <- %R15
	movq	%rdi, %r12
Ltmp448:
	##DEBUG_VALUE: setObjectLong:ret <- 1
	##DEBUG_VALUE: setObjectLong:info <- %R12
	.loc	12 406 24 prologue_end  ## pyhlhdf_common.c:406:24
	movq	%rdx, %rdi
Ltmp449:
	##DEBUG_VALUE: setObjectLong:in_value <- %RDI
	callq	_PyInt_FromLong
Ltmp450:
	movq	%rax, %r14
Ltmp451:
	##DEBUG_VALUE: setObjectLong:out_value <- %R14
	xorl	%ebx, %ebx
Ltmp452:
	.loc	12 407 8                ## pyhlhdf_common.c:407:8
	testq	%r14, %r14
	je	LBB22_3
Ltmp453:
## BB#1:
	##DEBUG_VALUE: setObjectLong:out_value <- %R14
	##DEBUG_VALUE: setObjectLong:info <- %R12
	##DEBUG_VALUE: setObjectLong:keyname <- %R15
	.loc	12 410 7                ## pyhlhdf_common.c:410:7
	movq	%r12, %rdi
	movq	%r15, %rsi
	movq	%r14, %rdx
	callq	_PyObject_SetAttrString
Ltmp454:
	##DEBUG_VALUE: setObjectLong:ret <- 0
	.loc	12 410 7 is_stmt 0      ## pyhlhdf_common.c:410:7
	xorl	%ebx, %ebx
	cmpl	$-1, %eax
	setne	%bl
Ltmp455:
	##DEBUG_VALUE: setObjectLong:ret <- %EBX
	.loc	12 413 14 is_stmt 1 discriminator 1 ## pyhlhdf_common.c:413:14
	decq	(%r14)
	jne	LBB22_3
Ltmp456:
## BB#2:
	##DEBUG_VALUE: setObjectLong:ret <- %EBX
	##DEBUG_VALUE: setObjectLong:out_value <- %R14
	##DEBUG_VALUE: setObjectLong:info <- %R12
	##DEBUG_VALUE: setObjectLong:keyname <- %R15
	.loc	12 413 110 is_stmt 0 discriminator 3 ## pyhlhdf_common.c:413:110
	movq	8(%r14), %rax
	.loc	12 413 67 discriminator 3 ## pyhlhdf_common.c:413:67
	movq	%r14, %rdi
	callq	*48(%rax)
Ltmp457:
LBB22_3:
	##DEBUG_VALUE: setObjectLong:out_value <- %R14
	##DEBUG_VALUE: setObjectLong:info <- %R12
	##DEBUG_VALUE: setObjectLong:keyname <- %R15
	.loc	12 416 1 is_stmt 1      ## pyhlhdf_common.c:416:1
	movl	%ebx, %eax
	popq	%rbx
	popq	%r12
Ltmp458:
	popq	%r14
Ltmp459:
	popq	%r15
Ltmp460:
	popq	%rbp
	retq
Ltmp461:
Lfunc_end22:
	.cfi_endproc

	.globl	_setObjectUnsignedLong
_setObjectUnsignedLong:                 ## @setObjectUnsignedLong
Lfunc_begin23:
	.loc	12 421 0                ## pyhlhdf_common.c:421:0
	.cfi_startproc
## BB#0:
	pushq	%rbp
Ltmp462:
	.cfi_def_cfa_offset 16
Ltmp463:
	.cfi_offset %rbp, -16
	movq	%rsp, %rbp
Ltmp464:
	.cfi_def_cfa_register %rbp
	pushq	%r15
	pushq	%r14
	pushq	%r12
	pushq	%rbx
Ltmp465:
	.cfi_offset %rbx, -48
Ltmp466:
	.cfi_offset %r12, -40
Ltmp467:
	.cfi_offset %r14, -32
Ltmp468:
	.cfi_offset %r15, -24
	##DEBUG_VALUE: setObjectUnsignedLong:info <- %RDI
	##DEBUG_VALUE: setObjectUnsignedLong:keyname <- %RSI
	##DEBUG_VALUE: setObjectUnsignedLong:in_value <- %RDX
	movq	%rsi, %r15
Ltmp469:
	##DEBUG_VALUE: setObjectUnsignedLong:keyname <- %R15
	movq	%rdi, %r12
Ltmp470:
	##DEBUG_VALUE: setObjectUnsignedLong:ret <- 1
	##DEBUG_VALUE: setObjectUnsignedLong:info <- %R12
	.loc	12 424 24 prologue_end  ## pyhlhdf_common.c:424:24
	movq	%rdx, %rdi
Ltmp471:
	##DEBUG_VALUE: setObjectUnsignedLong:in_value <- %RDI
	callq	_PyInt_FromLong
Ltmp472:
	movq	%rax, %r14
Ltmp473:
	##DEBUG_VALUE: setObjectUnsignedLong:out_value <- %R14
	xorl	%ebx, %ebx
Ltmp474:
	.loc	12 425 8                ## pyhlhdf_common.c:425:8
	testq	%r14, %r14
	je	LBB23_3
Ltmp475:
## BB#1:
	##DEBUG_VALUE: setObjectUnsignedLong:out_value <- %R14
	##DEBUG_VALUE: setObjectUnsignedLong:info <- %R12
	##DEBUG_VALUE: setObjectUnsignedLong:keyname <- %R15
	.loc	12 428 7                ## pyhlhdf_common.c:428:7
	movq	%r12, %rdi
	movq	%r15, %rsi
	movq	%r14, %rdx
	callq	_PyObject_SetAttrString
Ltmp476:
	##DEBUG_VALUE: setObjectUnsignedLong:ret <- 0
	.loc	12 428 7 is_stmt 0      ## pyhlhdf_common.c:428:7
	xorl	%ebx, %ebx
	cmpl	$-1, %eax
	setne	%bl
Ltmp477:
	##DEBUG_VALUE: setObjectUnsignedLong:ret <- %EBX
	.loc	12 431 14 is_stmt 1 discriminator 1 ## pyhlhdf_common.c:431:14
	decq	(%r14)
	jne	LBB23_3
Ltmp478:
## BB#2:
	##DEBUG_VALUE: setObjectUnsignedLong:ret <- %EBX
	##DEBUG_VALUE: setObjectUnsignedLong:out_value <- %R14
	##DEBUG_VALUE: setObjectUnsignedLong:info <- %R12
	##DEBUG_VALUE: setObjectUnsignedLong:keyname <- %R15
	.loc	12 431 110 is_stmt 0 discriminator 3 ## pyhlhdf_common.c:431:110
	movq	8(%r14), %rax
	.loc	12 431 67 discriminator 3 ## pyhlhdf_common.c:431:67
	movq	%r14, %rdi
	callq	*48(%rax)
Ltmp479:
LBB23_3:
	##DEBUG_VALUE: setObjectUnsignedLong:out_value <- %R14
	##DEBUG_VALUE: setObjectUnsignedLong:info <- %R12
	##DEBUG_VALUE: setObjectUnsignedLong:keyname <- %R15
	.loc	12 434 1 is_stmt 1      ## pyhlhdf_common.c:434:1
	movl	%ebx, %eax
	popq	%rbx
	popq	%r12
Ltmp480:
	popq	%r14
Ltmp481:
	popq	%r15
Ltmp482:
	popq	%rbp
	retq
Ltmp483:
Lfunc_end23:
	.cfi_endproc

	.globl	_setObjectDouble
_setObjectDouble:                       ## @setObjectDouble
Lfunc_begin24:
	.loc	12 440 0                ## pyhlhdf_common.c:440:0
	.cfi_startproc
## BB#0:
	pushq	%rbp
Ltmp484:
	.cfi_def_cfa_offset 16
Ltmp485:
	.cfi_offset %rbp, -16
	movq	%rsp, %rbp
Ltmp486:
	.cfi_def_cfa_register %rbp
	pushq	%r15
	pushq	%r14
	pushq	%r12
	pushq	%rbx
Ltmp487:
	.cfi_offset %rbx, -48
Ltmp488:
	.cfi_offset %r12, -40
Ltmp489:
	.cfi_offset %r14, -32
Ltmp490:
	.cfi_offset %r15, -24
	##DEBUG_VALUE: setObjectDouble:info <- %RDI
	##DEBUG_VALUE: setObjectDouble:keyname <- %RSI
	##DEBUG_VALUE: setObjectDouble:in_value <- %XMM0
	movq	%rsi, %r15
Ltmp491:
	##DEBUG_VALUE: setObjectDouble:keyname <- %R15
	movq	%rdi, %r12
Ltmp492:
	##DEBUG_VALUE: setObjectDouble:ret <- 1
	##DEBUG_VALUE: setObjectDouble:info <- %R12
	.loc	12 443 24 prologue_end  ## pyhlhdf_common.c:443:24
	callq	_PyFloat_FromDouble
Ltmp493:
	movq	%rax, %r14
Ltmp494:
	##DEBUG_VALUE: setObjectDouble:out_value <- %R14
	xorl	%ebx, %ebx
Ltmp495:
	.loc	12 444 8                ## pyhlhdf_common.c:444:8
	testq	%r14, %r14
	je	LBB24_3
Ltmp496:
## BB#1:
	##DEBUG_VALUE: setObjectDouble:out_value <- %R14
	##DEBUG_VALUE: setObjectDouble:info <- %R12
	##DEBUG_VALUE: setObjectDouble:keyname <- %R15
	.loc	12 447 7                ## pyhlhdf_common.c:447:7
	movq	%r12, %rdi
	movq	%r15, %rsi
	movq	%r14, %rdx
	callq	_PyObject_SetAttrString
Ltmp497:
	##DEBUG_VALUE: setObjectDouble:ret <- 0
	.loc	12 447 7 is_stmt 0      ## pyhlhdf_common.c:447:7
	xorl	%ebx, %ebx
	cmpl	$-1, %eax
	setne	%bl
Ltmp498:
	##DEBUG_VALUE: setObjectDouble:ret <- %EBX
	.loc	12 450 14 is_stmt 1 discriminator 1 ## pyhlhdf_common.c:450:14
	decq	(%r14)
	jne	LBB24_3
Ltmp499:
## BB#2:
	##DEBUG_VALUE: setObjectDouble:ret <- %EBX
	##DEBUG_VALUE: setObjectDouble:out_value <- %R14
	##DEBUG_VALUE: setObjectDouble:info <- %R12
	##DEBUG_VALUE: setObjectDouble:keyname <- %R15
	.loc	12 450 110 is_stmt 0 discriminator 3 ## pyhlhdf_common.c:450:110
	movq	8(%r14), %rax
	.loc	12 450 67 discriminator 3 ## pyhlhdf_common.c:450:67
	movq	%r14, %rdi
	callq	*48(%rax)
Ltmp500:
LBB24_3:
	##DEBUG_VALUE: setObjectDouble:out_value <- %R14
	##DEBUG_VALUE: setObjectDouble:info <- %R12
	##DEBUG_VALUE: setObjectDouble:keyname <- %R15
	.loc	12 453 1 is_stmt 1      ## pyhlhdf_common.c:453:1
	movl	%ebx, %eax
	popq	%rbx
	popq	%r12
Ltmp501:
	popq	%r14
Ltmp502:
	popq	%r15
Ltmp503:
	popq	%rbp
	retq
Ltmp504:
Lfunc_end24:
	.cfi_endproc

	.globl	_setObjectFloat
_setObjectFloat:                        ## @setObjectFloat
Lfunc_begin25:
	.loc	12 459 0                ## pyhlhdf_common.c:459:0
	.cfi_startproc
## BB#0:
	pushq	%rbp
Ltmp505:
	.cfi_def_cfa_offset 16
Ltmp506:
	.cfi_offset %rbp, -16
	movq	%rsp, %rbp
Ltmp507:
	.cfi_def_cfa_register %rbp
	pushq	%r15
	pushq	%r14
	pushq	%r12
	pushq	%rbx
Ltmp508:
	.cfi_offset %rbx, -48
Ltmp509:
	.cfi_offset %r12, -40
Ltmp510:
	.cfi_offset %r14, -32
Ltmp511:
	.cfi_offset %r15, -24
	##DEBUG_VALUE: setObjectFloat:info <- %RDI
	##DEBUG_VALUE: setObjectFloat:keyname <- %RSI
	##DEBUG_VALUE: setObjectFloat:in_value <- %XMM0
	movq	%rsi, %r15
Ltmp512:
	##DEBUG_VALUE: setObjectFloat:keyname <- %R15
	movq	%rdi, %r12
Ltmp513:
	##DEBUG_VALUE: setObjectFloat:ret <- 1
	##DEBUG_VALUE: setObjectFloat:info <- %R12
	.loc	12 462 43 prologue_end  ## pyhlhdf_common.c:462:43
	cvtss2sd	%xmm0, %xmm0
Ltmp514:
	.loc	12 462 24 is_stmt 0     ## pyhlhdf_common.c:462:24
	callq	_PyFloat_FromDouble
	movq	%rax, %r14
Ltmp515:
	##DEBUG_VALUE: setObjectFloat:out_value <- %R14
	xorl	%ebx, %ebx
Ltmp516:
	.loc	12 463 8 is_stmt 1      ## pyhlhdf_common.c:463:8
	testq	%r14, %r14
	je	LBB25_3
Ltmp517:
## BB#1:
	##DEBUG_VALUE: setObjectFloat:out_value <- %R14
	##DEBUG_VALUE: setObjectFloat:info <- %R12
	##DEBUG_VALUE: setObjectFloat:keyname <- %R15
	.loc	12 466 7                ## pyhlhdf_common.c:466:7
	movq	%r12, %rdi
	movq	%r15, %rsi
	movq	%r14, %rdx
	callq	_PyObject_SetAttrString
Ltmp518:
	##DEBUG_VALUE: setObjectFloat:ret <- 0
	.loc	12 466 7 is_stmt 0      ## pyhlhdf_common.c:466:7
	xorl	%ebx, %ebx
	cmpl	$-1, %eax
	setne	%bl
Ltmp519:
	##DEBUG_VALUE: setObjectFloat:ret <- %EBX
	.loc	12 469 14 is_stmt 1 discriminator 1 ## pyhlhdf_common.c:469:14
	decq	(%r14)
	jne	LBB25_3
Ltmp520:
## BB#2:
	##DEBUG_VALUE: setObjectFloat:ret <- %EBX
	##DEBUG_VALUE: setObjectFloat:out_value <- %R14
	##DEBUG_VALUE: setObjectFloat:info <- %R12
	##DEBUG_VALUE: setObjectFloat:keyname <- %R15
	.loc	12 469 110 is_stmt 0 discriminator 3 ## pyhlhdf_common.c:469:110
	movq	8(%r14), %rax
	.loc	12 469 67 discriminator 3 ## pyhlhdf_common.c:469:67
	movq	%r14, %rdi
	callq	*48(%rax)
Ltmp521:
LBB25_3:
	##DEBUG_VALUE: setObjectFloat:out_value <- %R14
	##DEBUG_VALUE: setObjectFloat:info <- %R12
	##DEBUG_VALUE: setObjectFloat:keyname <- %R15
	.loc	12 472 1 is_stmt 1      ## pyhlhdf_common.c:472:1
	movl	%ebx, %eax
	popq	%rbx
	popq	%r12
Ltmp522:
	popq	%r14
Ltmp523:
	popq	%r15
Ltmp524:
	popq	%rbp
	retq
Ltmp525:
Lfunc_end25:
	.cfi_endproc

	.globl	_setObjectString
_setObjectString:                       ## @setObjectString
Lfunc_begin26:
	.loc	12 478 0                ## pyhlhdf_common.c:478:0
	.cfi_startproc
## BB#0:
	pushq	%rbp
Ltmp526:
	.cfi_def_cfa_offset 16
Ltmp527:
	.cfi_offset %rbp, -16
	movq	%rsp, %rbp
Ltmp528:
	.cfi_def_cfa_register %rbp
	pushq	%r15
	pushq	%r14
	pushq	%r12
	pushq	%rbx
Ltmp529:
	.cfi_offset %rbx, -48
Ltmp530:
	.cfi_offset %r12, -40
Ltmp531:
	.cfi_offset %r14, -32
Ltmp532:
	.cfi_offset %r15, -24
	##DEBUG_VALUE: setObjectString:info <- %RDI
	##DEBUG_VALUE: setObjectString:keyname <- %RSI
	##DEBUG_VALUE: setObjectString:in_string <- %RDX
	movq	%rsi, %r15
Ltmp533:
	##DEBUG_VALUE: setObjectString:keyname <- %R15
	movq	%rdi, %r12
Ltmp534:
	##DEBUG_VALUE: setObjectString:ret <- 1
	##DEBUG_VALUE: setObjectString:info <- %R12
	.loc	12 480 25 prologue_end  ## pyhlhdf_common.c:480:25
	movq	%rdx, %rdi
Ltmp535:
	##DEBUG_VALUE: setObjectString:in_string <- %RDI
	callq	_PyString_FromString
Ltmp536:
	movq	%rax, %r14
Ltmp537:
	##DEBUG_VALUE: setObjectString:out_string <- %R14
	xorl	%ebx, %ebx
Ltmp538:
	.loc	12 481 8                ## pyhlhdf_common.c:481:8
	testq	%r14, %r14
	je	LBB26_3
Ltmp539:
## BB#1:
	##DEBUG_VALUE: setObjectString:out_string <- %R14
	##DEBUG_VALUE: setObjectString:info <- %R12
	##DEBUG_VALUE: setObjectString:keyname <- %R15
	.loc	12 484 7                ## pyhlhdf_common.c:484:7
	movq	%r12, %rdi
	movq	%r15, %rsi
	movq	%r14, %rdx
	callq	_PyObject_SetAttrString
Ltmp540:
	##DEBUG_VALUE: setObjectString:ret <- 0
	.loc	12 484 7 is_stmt 0      ## pyhlhdf_common.c:484:7
	xorl	%ebx, %ebx
	cmpl	$-1, %eax
	setne	%bl
Ltmp541:
	##DEBUG_VALUE: setObjectString:ret <- %EBX
	.loc	12 487 14 is_stmt 1 discriminator 1 ## pyhlhdf_common.c:487:14
	decq	(%r14)
	jne	LBB26_3
Ltmp542:
## BB#2:
	##DEBUG_VALUE: setObjectString:ret <- %EBX
	##DEBUG_VALUE: setObjectString:out_string <- %R14
	##DEBUG_VALUE: setObjectString:info <- %R12
	##DEBUG_VALUE: setObjectString:keyname <- %R15
	.loc	12 487 112 is_stmt 0 discriminator 3 ## pyhlhdf_common.c:487:112
	movq	8(%r14), %rax
	.loc	12 487 68 discriminator 3 ## pyhlhdf_common.c:487:68
	movq	%r14, %rdi
	callq	*48(%rax)
Ltmp543:
LBB26_3:
	##DEBUG_VALUE: setObjectString:out_string <- %R14
	##DEBUG_VALUE: setObjectString:info <- %R12
	##DEBUG_VALUE: setObjectString:keyname <- %R15
	.loc	12 490 1 is_stmt 1      ## pyhlhdf_common.c:490:1
	movl	%ebx, %eax
	popq	%rbx
	popq	%r12
Ltmp544:
	popq	%r14
Ltmp545:
	popq	%r15
Ltmp546:
	popq	%rbp
	retq
Ltmp547:
Lfunc_end26:
	.cfi_endproc

	.globl	_setObjectString_Length
_setObjectString_Length:                ## @setObjectString_Length
Lfunc_begin27:
	.loc	12 496 0                ## pyhlhdf_common.c:496:0
	.cfi_startproc
## BB#0:
	pushq	%rbp
Ltmp548:
	.cfi_def_cfa_offset 16
Ltmp549:
	.cfi_offset %rbp, -16
	movq	%rsp, %rbp
Ltmp550:
	.cfi_def_cfa_register %rbp
	pushq	%r15
	pushq	%r14
	pushq	%r12
	pushq	%rbx
Ltmp551:
	.cfi_offset %rbx, -48
Ltmp552:
	.cfi_offset %r12, -40
Ltmp553:
	.cfi_offset %r14, -32
Ltmp554:
	.cfi_offset %r15, -24
	##DEBUG_VALUE: setObjectString_Length:info <- %RDI
	##DEBUG_VALUE: setObjectString_Length:keyname <- %RSI
	##DEBUG_VALUE: setObjectString_Length:in_string <- %RDX
	##DEBUG_VALUE: setObjectString_Length:len <- %ECX
	movl	%ecx, %r12d
Ltmp555:
	##DEBUG_VALUE: setObjectString_Length:len <- %R12D
	movq	%rdx, %rbx
Ltmp556:
	##DEBUG_VALUE: setObjectString_Length:in_string <- %RBX
	movq	%rsi, %r14
Ltmp557:
	##DEBUG_VALUE: setObjectString_Length:keyname <- %R14
	movq	%rdi, %r15
Ltmp558:
	##DEBUG_VALUE: setObjectString_Length:ret <- 1
	##DEBUG_VALUE: setObjectString_Length:info <- %R15
	.loc	12 500 7 prologue_end   ## pyhlhdf_common.c:500:7
	movq	%rbx, %rdi
	callq	_strlen
	.loc	12 500 25 is_stmt 0     ## pyhlhdf_common.c:500:25
	movslq	%r12d, %rsi
Ltmp559:
	.loc	12 500 7                ## pyhlhdf_common.c:500:7
	cmpq	%rsi, %rax
	jae	LBB27_1
Ltmp560:
## BB#5:
	##DEBUG_VALUE: setObjectString_Length:info <- %R15
	##DEBUG_VALUE: setObjectString_Length:keyname <- %R14
	##DEBUG_VALUE: setObjectString_Length:in_string <- %RBX
	##DEBUG_VALUE: setObjectString_Length:len <- %R12D
	.loc	12 501 14 is_stmt 1     ## pyhlhdf_common.c:501:14
	movq	%r15, %rdi
	movq	%r14, %rsi
	movq	%rbx, %rdx
	popq	%rbx
Ltmp561:
	popq	%r12
Ltmp562:
	popq	%r14
Ltmp563:
	popq	%r15
Ltmp564:
	popq	%rbp
	jmp	_setObjectString        ## TAILCALL
Ltmp565:
LBB27_1:
	##DEBUG_VALUE: setObjectString_Length:info <- %R15
	##DEBUG_VALUE: setObjectString_Length:keyname <- %R14
	##DEBUG_VALUE: setObjectString_Length:in_string <- %RBX
	##DEBUG_VALUE: setObjectString_Length:len <- %R12D
	.loc	12 503 15               ## pyhlhdf_common.c:503:15
	movq	%rbx, %rdi
	callq	_PyString_FromStringAndSize
	movq	%rax, %r12
Ltmp566:
	##DEBUG_VALUE: setObjectString_Length:out_string <- %R12
	xorl	%ebx, %ebx
Ltmp567:
	.loc	12 504 8                ## pyhlhdf_common.c:504:8
	testq	%r12, %r12
	je	LBB27_4
Ltmp568:
## BB#2:
	##DEBUG_VALUE: setObjectString_Length:out_string <- %R12
	##DEBUG_VALUE: setObjectString_Length:info <- %R15
	##DEBUG_VALUE: setObjectString_Length:keyname <- %R14
	.loc	12 507 7                ## pyhlhdf_common.c:507:7
	movq	%r15, %rdi
	movq	%r14, %rsi
	movq	%r12, %rdx
	callq	_PyObject_SetAttrString
Ltmp569:
	##DEBUG_VALUE: setObjectString_Length:ret <- 0
	.loc	12 507 7 is_stmt 0      ## pyhlhdf_common.c:507:7
	xorl	%ebx, %ebx
	cmpl	$-1, %eax
	setne	%bl
Ltmp570:
	##DEBUG_VALUE: setObjectString_Length:ret <- %EBX
	.loc	12 510 14 is_stmt 1 discriminator 1 ## pyhlhdf_common.c:510:14
	decq	(%r12)
	jne	LBB27_4
Ltmp571:
## BB#3:
	##DEBUG_VALUE: setObjectString_Length:ret <- %EBX
	##DEBUG_VALUE: setObjectString_Length:out_string <- %R12
	##DEBUG_VALUE: setObjectString_Length:info <- %R15
	##DEBUG_VALUE: setObjectString_Length:keyname <- %R14
	.loc	12 510 112 is_stmt 0 discriminator 3 ## pyhlhdf_common.c:510:112
	movq	8(%r12), %rax
	.loc	12 510 68 discriminator 3 ## pyhlhdf_common.c:510:68
	movq	%r12, %rdi
	callq	*48(%rax)
Ltmp572:
LBB27_4:
	##DEBUG_VALUE: setObjectString_Length:out_string <- %R12
	##DEBUG_VALUE: setObjectString_Length:info <- %R15
	##DEBUG_VALUE: setObjectString_Length:keyname <- %R14
	.loc	12 513 1 is_stmt 1      ## pyhlhdf_common.c:513:1
	movl	%ebx, %eax
	popq	%rbx
	popq	%r12
Ltmp573:
	popq	%r14
Ltmp574:
	popq	%r15
Ltmp575:
	popq	%rbp
	retq
Ltmp576:
Lfunc_end27:
	.cfi_endproc

	.globl	_translatePyFormatToHlHdf
_translatePyFormatToHlHdf:              ## @translatePyFormatToHlHdf
Lfunc_begin28:
	.loc	12 519 0                ## pyhlhdf_common.c:519:0
	.cfi_startproc
## BB#0:
	##DEBUG_VALUE: translatePyFormatToHlHdf:type <- %EDI
	movl	%edi, %ecx
Ltmp577:
	##DEBUG_VALUE: translatePyFormatToHlHdf:type <- %ECX
	.loc	12 522 4 prologue_end   ## pyhlhdf_common.c:522:4
	cmpl	$75, %ecx
	jle	LBB28_1
Ltmp578:
## BB#5:
	##DEBUG_VALUE: translatePyFormatToHlHdf:type <- %ECX
	leal	-98(%rcx), %eax
	cmpl	$10, %eax
	ja	LBB28_6
Ltmp579:
## BB#8:
	##DEBUG_VALUE: translatePyFormatToHlHdf:type <- %ECX
	leaq	LJTI28_0(%rip), %rdx
	movslq	(%rdx,%rax,4), %rax
	addq	%rdx, %rax
	jmpq	*%rax
Ltmp580:
LBB28_9:
	##DEBUG_VALUE: translatePyFormatToHlHdf:type <- %ECX
	.loc	12 525 12               ## pyhlhdf_common.c:525:12
	leaq	L_.str(%rip), %rdi
	jmp	_strdup                 ## TAILCALL
Ltmp581:
LBB28_1:
	##DEBUG_VALUE: translatePyFormatToHlHdf:type <- %ECX
	cmpl	$66, %ecx
	je	LBB28_10
Ltmp582:
## BB#2:
	##DEBUG_VALUE: translatePyFormatToHlHdf:type <- %ECX
	cmpl	$72, %ecx
	je	LBB28_12
Ltmp583:
## BB#3:
	##DEBUG_VALUE: translatePyFormatToHlHdf:type <- %ECX
	cmpl	$73, %ecx
	jne	LBB28_17
Ltmp584:
## BB#4:
	##DEBUG_VALUE: translatePyFormatToHlHdf:type <- %ECX
	.loc	12 540 12               ## pyhlhdf_common.c:540:12
	leaq	L_.str.5(%rip), %rdi
	jmp	_strdup                 ## TAILCALL
Ltmp585:
LBB28_10:
	##DEBUG_VALUE: translatePyFormatToHlHdf:type <- %ECX
	.loc	12 528 12               ## pyhlhdf_common.c:528:12
	leaq	L_.str.1(%rip), %rdi
	jmp	_strdup                 ## TAILCALL
Ltmp586:
LBB28_12:
	##DEBUG_VALUE: translatePyFormatToHlHdf:type <- %ECX
	.loc	12 534 12               ## pyhlhdf_common.c:534:12
	leaq	L_.str.3(%rip), %rdi
	jmp	_strdup                 ## TAILCALL
Ltmp587:
LBB28_6:
	##DEBUG_VALUE: translatePyFormatToHlHdf:type <- %ECX
	cmpl	$76, %ecx
	jne	LBB28_17
Ltmp588:
## BB#7:
	##DEBUG_VALUE: translatePyFormatToHlHdf:type <- %ECX
	.loc	12 546 12               ## pyhlhdf_common.c:546:12
	leaq	L_.str.7(%rip), %rdi
	jmp	_strdup                 ## TAILCALL
Ltmp589:
LBB28_17:
	##DEBUG_VALUE: translatePyFormatToHlHdf:type <- %ECX
	pushq	%rbp
Ltmp590:
	.cfi_def_cfa_offset 16
Ltmp591:
	.cfi_offset %rbp, -16
	movq	%rsp, %rbp
Ltmp592:
	.cfi_def_cfa_register %rbp
	.loc	12 558 15               ## pyhlhdf_common.c:558:15
	movq	___stderrp@GOTPCREL(%rip), %rax
	movq	(%rax), %rdi
	.loc	12 558 7 is_stmt 0      ## pyhlhdf_common.c:558:7
	leaq	L_.str.10(%rip), %rsi
	xorl	%eax, %eax
	movl	%ecx, %edx
	callq	_fprintf
Ltmp593:
	##DEBUG_VALUE: translatePyFormatToHlHdf:retv <- %RAX
	.loc	12 560 4 is_stmt 1      ## pyhlhdf_common.c:560:4
	xorl	%eax, %eax
Ltmp594:
	popq	%rbp
	retq
LBB28_16:
Ltmp595:
	##DEBUG_VALUE: translatePyFormatToHlHdf:type <- %ECX
	.loc	12 552 12               ## pyhlhdf_common.c:552:12
	leaq	L_.str.9(%rip), %rdi
	jmp	_strdup                 ## TAILCALL
Ltmp596:
LBB28_15:
	##DEBUG_VALUE: translatePyFormatToHlHdf:type <- %ECX
	.loc	12 549 12               ## pyhlhdf_common.c:549:12
	leaq	L_.str.8(%rip), %rdi
	jmp	_strdup                 ## TAILCALL
Ltmp597:
LBB28_11:
	##DEBUG_VALUE: translatePyFormatToHlHdf:type <- %ECX
	.loc	12 531 12               ## pyhlhdf_common.c:531:12
	leaq	L_.str.2(%rip), %rdi
	jmp	_strdup                 ## TAILCALL
Ltmp598:
LBB28_13:
	##DEBUG_VALUE: translatePyFormatToHlHdf:type <- %ECX
	.loc	12 537 12               ## pyhlhdf_common.c:537:12
	leaq	L_.str.4(%rip), %rdi
	jmp	_strdup                 ## TAILCALL
Ltmp599:
LBB28_14:
	##DEBUG_VALUE: translatePyFormatToHlHdf:type <- %ECX
	.loc	12 543 12               ## pyhlhdf_common.c:543:12
	leaq	L_.str.6(%rip), %rdi
	jmp	_strdup                 ## TAILCALL
Ltmp600:
Lfunc_end28:
	.cfi_endproc
	.p2align	2, 0x90
	.data_region jt32
L28_0_set_9 = LBB28_9-LJTI28_0
L28_0_set_16 = LBB28_16-LJTI28_0
L28_0_set_17 = LBB28_17-LJTI28_0
L28_0_set_15 = LBB28_15-LJTI28_0
L28_0_set_11 = LBB28_11-LJTI28_0
L28_0_set_13 = LBB28_13-LJTI28_0
L28_0_set_14 = LBB28_14-LJTI28_0
LJTI28_0:
	.long	L28_0_set_9
	.long	L28_0_set_9
	.long	L28_0_set_16
	.long	L28_0_set_17
	.long	L28_0_set_15
	.long	L28_0_set_17
	.long	L28_0_set_11
	.long	L28_0_set_13
	.long	L28_0_set_17
	.long	L28_0_set_17
	.long	L28_0_set_14
	.end_data_region

	.globl	_pyarraytypeFromHdfType
_pyarraytypeFromHdfType:                ## @pyarraytypeFromHdfType
Lfunc_begin29:
	.loc	12 567 0                ## pyhlhdf_common.c:567:0
	.cfi_startproc
## BB#0:
	pushq	%rbp
Ltmp601:
	.cfi_def_cfa_offset 16
Ltmp602:
	.cfi_offset %rbp, -16
	movq	%rsp, %rbp
Ltmp603:
	.cfi_def_cfa_register %rbp
	pushq	%rbx
	pushq	%rax
Ltmp604:
	.cfi_offset %rbx, -24
	##DEBUG_VALUE: pyarraytypeFromHdfType:format <- %RDI
	movq	%rdi, %rbx
Ltmp605:
	##DEBUG_VALUE: pyarraytypeFromHdfType:format <- %RBX
	movl	$-1, %eax
Ltmp606:
	.loc	12 568 8 prologue_end   ## pyhlhdf_common.c:568:8
	testq	%rbx, %rbx
	je	LBB29_13
Ltmp607:
## BB#1:
	##DEBUG_VALUE: pyarraytypeFromHdfType:format <- %RBX
	.loc	12 571 7                ## pyhlhdf_common.c:571:7
	leaq	L_.str(%rip), %rsi
	movq	%rbx, %rdi
	callq	_strcmp
	movl	%eax, %ecx
	movl	$26, %eax
	.loc	12 571 30 is_stmt 0     ## pyhlhdf_common.c:571:30
	testl	%ecx, %ecx
	je	LBB29_13
Ltmp608:
## BB#2:
	##DEBUG_VALUE: pyarraytypeFromHdfType:format <- %RBX
	.loc	12 573 14 is_stmt 1     ## pyhlhdf_common.c:573:14
	leaq	L_.str.11(%rip), %rsi
	movq	%rbx, %rdi
	callq	_strcmp
	movl	%eax, %ecx
	movl	$1, %eax
	.loc	12 573 38 is_stmt 0     ## pyhlhdf_common.c:573:38
	testl	%ecx, %ecx
	je	LBB29_13
Ltmp609:
## BB#3:
	##DEBUG_VALUE: pyarraytypeFromHdfType:format <- %RBX
	.loc	12 575 14 is_stmt 1     ## pyhlhdf_common.c:575:14
	leaq	L_.str.1(%rip), %rsi
	movq	%rbx, %rdi
	callq	_strcmp
	movl	%eax, %ecx
	movl	$2, %eax
	.loc	12 575 38 is_stmt 0     ## pyhlhdf_common.c:575:38
	testl	%ecx, %ecx
	je	LBB29_13
Ltmp610:
## BB#4:
	##DEBUG_VALUE: pyarraytypeFromHdfType:format <- %RBX
	.loc	12 577 14 is_stmt 1     ## pyhlhdf_common.c:577:14
	leaq	L_.str.2(%rip), %rsi
	movq	%rbx, %rdi
	callq	_strcmp
	movl	%eax, %ecx
	movl	$3, %eax
	.loc	12 577 38 is_stmt 0     ## pyhlhdf_common.c:577:38
	testl	%ecx, %ecx
	je	LBB29_13
Ltmp611:
## BB#5:
	##DEBUG_VALUE: pyarraytypeFromHdfType:format <- %RBX
	.loc	12 579 14 is_stmt 1     ## pyhlhdf_common.c:579:14
	leaq	L_.str.3(%rip), %rsi
	movq	%rbx, %rdi
	callq	_strcmp
	movl	%eax, %ecx
	movl	$4, %eax
	.loc	12 579 39 is_stmt 0     ## pyhlhdf_common.c:579:39
	testl	%ecx, %ecx
	je	LBB29_13
Ltmp612:
## BB#6:
	##DEBUG_VALUE: pyarraytypeFromHdfType:format <- %RBX
	.loc	12 581 14 is_stmt 1     ## pyhlhdf_common.c:581:14
	leaq	L_.str.4(%rip), %rsi
	movq	%rbx, %rdi
	callq	_strcmp
	movl	%eax, %ecx
	movl	$5, %eax
	.loc	12 581 36 is_stmt 0     ## pyhlhdf_common.c:581:36
	testl	%ecx, %ecx
	je	LBB29_13
Ltmp613:
## BB#7:
	##DEBUG_VALUE: pyarraytypeFromHdfType:format <- %RBX
	.loc	12 583 14 is_stmt 1     ## pyhlhdf_common.c:583:14
	leaq	L_.str.5(%rip), %rsi
	movq	%rbx, %rdi
	callq	_strcmp
	movl	%eax, %ecx
	movl	$6, %eax
	.loc	12 583 37 is_stmt 0     ## pyhlhdf_common.c:583:37
	testl	%ecx, %ecx
	je	LBB29_13
Ltmp614:
## BB#8:
	##DEBUG_VALUE: pyarraytypeFromHdfType:format <- %RBX
	.loc	12 585 14 is_stmt 1     ## pyhlhdf_common.c:585:14
	leaq	L_.str.6(%rip), %rsi
	movq	%rbx, %rdi
	callq	_strcmp
	movl	%eax, %ecx
	movl	$7, %eax
	.loc	12 585 37 is_stmt 0     ## pyhlhdf_common.c:585:37
	testl	%ecx, %ecx
	je	LBB29_13
Ltmp615:
## BB#9:
	##DEBUG_VALUE: pyarraytypeFromHdfType:format <- %RBX
	.loc	12 587 14 is_stmt 1     ## pyhlhdf_common.c:587:14
	leaq	L_.str.7(%rip), %rsi
	movq	%rbx, %rdi
	callq	_strcmp
	movl	%eax, %ecx
	movl	$8, %eax
	.loc	12 587 38 is_stmt 0     ## pyhlhdf_common.c:587:38
	testl	%ecx, %ecx
	je	LBB29_13
Ltmp616:
## BB#10:
	##DEBUG_VALUE: pyarraytypeFromHdfType:format <- %RBX
	.loc	12 589 14 is_stmt 1     ## pyhlhdf_common.c:589:14
	leaq	L_.str.8(%rip), %rsi
	movq	%rbx, %rdi
	callq	_strcmp
	movl	%eax, %ecx
	movl	$11, %eax
	.loc	12 589 38 is_stmt 0     ## pyhlhdf_common.c:589:38
	testl	%ecx, %ecx
	je	LBB29_13
Ltmp617:
## BB#11:
	##DEBUG_VALUE: pyarraytypeFromHdfType:format <- %RBX
	.loc	12 591 14 is_stmt 1     ## pyhlhdf_common.c:591:14
	leaq	L_.str.9(%rip), %rsi
	movq	%rbx, %rdi
	callq	_strcmp
	movl	%eax, %ecx
	movl	$12, %eax
	.loc	12 591 39 is_stmt 0     ## pyhlhdf_common.c:591:39
	testl	%ecx, %ecx
	je	LBB29_13
Ltmp618:
## BB#12:
	##DEBUG_VALUE: pyarraytypeFromHdfType:format <- %RBX
	.loc	12 594 13 is_stmt 1     ## pyhlhdf_common.c:594:13
	movq	___stderrp@GOTPCREL(%rip), %rax
	movq	(%rax), %rdi
	.loc	12 594 5 is_stmt 0      ## pyhlhdf_common.c:594:5
	leaq	L_.str.12(%rip), %rsi
	xorl	%eax, %eax
	movq	%rbx, %rdx
	callq	_fprintf
	movl	$-1, %eax
Ltmp619:
LBB29_13:
	##DEBUG_VALUE: pyarraytypeFromHdfType:format <- %RBX
	.loc	12 598 1 is_stmt 1      ## pyhlhdf_common.c:598:1
	addq	$8, %rsp
	popq	%rbx
Ltmp620:
	popq	%rbp
	retq
Ltmp621:
Lfunc_end29:
	.cfi_endproc

	.globl	_new1d_ArrayObject
_new1d_ArrayObject:                     ## @new1d_ArrayObject
Lfunc_begin30:
	.loc	12 605 0                ## pyhlhdf_common.c:605:0
	.cfi_startproc
## BB#0:
	pushq	%rbp
Ltmp622:
	.cfi_def_cfa_offset 16
Ltmp623:
	.cfi_offset %rbp, -16
	movq	%rsp, %rbp
Ltmp624:
	.cfi_def_cfa_register %rbp
	pushq	%rbx
	subq	$24, %rsp
Ltmp625:
	.cfi_offset %rbx, -24
	##DEBUG_VALUE: new1d_ArrayObject:nl <- %EDI
	##DEBUG_VALUE: new1d_ArrayObject:format <- %RSI
	movl	%edi, %ebx
Ltmp626:
	##DEBUG_VALUE: new1d_ArrayObject:nl <- %EBX
	movq	___stack_chk_guard@GOTPCREL(%rip), %rax
	movq	(%rax), %rax
	movq	%rax, -16(%rbp)
Ltmp627:
	.loc	12 608 16 prologue_end  ## pyhlhdf_common.c:608:16
	movq	%rsi, %rdi
Ltmp628:
	##DEBUG_VALUE: new1d_ArrayObject:format <- %RDI
	callq	_pyarraytypeFromHdfType
Ltmp629:
	movl	%eax, %ecx
Ltmp630:
	##DEBUG_VALUE: new1d_ArrayObject:iformat <- %ECX
	xorl	%eax, %eax
Ltmp631:
	.loc	12 610 14               ## pyhlhdf_common.c:610:14
	cmpl	$-1, %ecx
	je	LBB30_2
Ltmp632:
## BB#1:
	##DEBUG_VALUE: new1d_ArrayObject:iformat <- %ECX
	##DEBUG_VALUE: new1d_ArrayObject:nl <- %EBX
	.loc	12 613 12               ## pyhlhdf_common.c:613:12
	movslq	%ebx, %rsi
	leaq	-24(%rbp), %rdx
	.loc	12 613 11 is_stmt 0     ## pyhlhdf_common.c:613:11
	movq	%rsi, (%rdx)
	.loc	12 615 123 is_stmt 1    ## pyhlhdf_common.c:615:123
	movq	_PyArrayAPIXXX@GOTPCREL(%rip), %rsi
	movq	(%rsi), %rbx
Ltmp633:
	.loc	12 615 161 is_stmt 0    ## pyhlhdf_common.c:615:161
	movq	16(%rbx), %rdi
	.loc	12 615 24               ## pyhlhdf_common.c:615:24
	subq	$8, %rsp
	movl	$1, %esi
	movl	$0, %r8d
	movl	$0, %r9d
	pushq	$0
	pushq	%rax
	pushq	%rax
	callq	*744(%rbx)
Ltmp634:
	addq	$32, %rsp
Ltmp635:
	##DEBUG_VALUE: new1d_ArrayObject:arr <- %RAX
LBB30_2:
	movq	___stack_chk_guard@GOTPCREL(%rip), %rcx
	movq	(%rcx), %rcx
	cmpq	-16(%rbp), %rcx
	jne	LBB30_4
## BB#3:
	.loc	12 618 1 is_stmt 1      ## pyhlhdf_common.c:618:1
	addq	$24, %rsp
	popq	%rbx
	popq	%rbp
	retq
Ltmp636:
LBB30_4:
	callq	___stack_chk_fail
Lfunc_end30:
	.cfi_endproc

	.globl	_new2d_ArrayObject
_new2d_ArrayObject:                     ## @new2d_ArrayObject
Lfunc_begin31:
	.loc	12 625 0                ## pyhlhdf_common.c:625:0
	.cfi_startproc
## BB#0:
	pushq	%rbp
Ltmp637:
	.cfi_def_cfa_offset 16
Ltmp638:
	.cfi_offset %rbp, -16
	movq	%rsp, %rbp
Ltmp639:
	.cfi_def_cfa_register %rbp
	pushq	%r14
	pushq	%rbx
	subq	$32, %rsp
Ltmp640:
	.cfi_offset %rbx, -32
Ltmp641:
	.cfi_offset %r14, -24
	##DEBUG_VALUE: new2d_ArrayObject:xsize <- %EDI
	##DEBUG_VALUE: new2d_ArrayObject:ysize <- %ESI
	##DEBUG_VALUE: new2d_ArrayObject:format <- %RDX
	movl	%esi, %ebx
Ltmp642:
	##DEBUG_VALUE: new2d_ArrayObject:ysize <- %EBX
	movl	%edi, %r14d
Ltmp643:
	##DEBUG_VALUE: new2d_ArrayObject:xsize <- %R14D
	movq	___stack_chk_guard@GOTPCREL(%rip), %rax
	movq	(%rax), %rax
	movq	%rax, -24(%rbp)
Ltmp644:
	.loc	12 628 16 prologue_end  ## pyhlhdf_common.c:628:16
	movq	%rdx, %rdi
Ltmp645:
	##DEBUG_VALUE: new2d_ArrayObject:format <- %RDI
	callq	_pyarraytypeFromHdfType
Ltmp646:
	movl	%eax, %ecx
Ltmp647:
	##DEBUG_VALUE: new2d_ArrayObject:iformat <- %ECX
	xorl	%eax, %eax
Ltmp648:
	.loc	12 630 14               ## pyhlhdf_common.c:630:14
	cmpl	$-1, %ecx
	je	LBB31_2
Ltmp649:
## BB#1:
	##DEBUG_VALUE: new2d_ArrayObject:iformat <- %ECX
	##DEBUG_VALUE: new2d_ArrayObject:xsize <- %R14D
	##DEBUG_VALUE: new2d_ArrayObject:ysize <- %EBX
	.loc	12 633 12               ## pyhlhdf_common.c:633:12
	movslq	%ebx, %rsi
	leaq	-48(%rbp), %rdx
	.loc	12 633 11 is_stmt 0     ## pyhlhdf_common.c:633:11
	movq	%rsi, (%rdx)
	.loc	12 634 12 is_stmt 1     ## pyhlhdf_common.c:634:12
	movslq	%r14d, %rsi
	.loc	12 634 11 is_stmt 0     ## pyhlhdf_common.c:634:11
	movq	%rsi, 8(%rdx)
	.loc	12 636 123 is_stmt 1    ## pyhlhdf_common.c:636:123
	movq	_PyArrayAPIXXX@GOTPCREL(%rip), %rsi
	movq	(%rsi), %rbx
Ltmp650:
	.loc	12 636 161 is_stmt 0    ## pyhlhdf_common.c:636:161
	movq	16(%rbx), %rdi
	.loc	12 636 24               ## pyhlhdf_common.c:636:24
	subq	$8, %rsp
	movl	$2, %esi
	movl	$0, %r8d
	movl	$0, %r9d
	pushq	$0
	pushq	%rax
	pushq	%rax
	callq	*744(%rbx)
Ltmp651:
	addq	$32, %rsp
Ltmp652:
	##DEBUG_VALUE: new2d_ArrayObject:arr <- %RAX
LBB31_2:
	##DEBUG_VALUE: new2d_ArrayObject:xsize <- %R14D
	movq	___stack_chk_guard@GOTPCREL(%rip), %rcx
	movq	(%rcx), %rcx
	cmpq	-24(%rbp), %rcx
	jne	LBB31_4
Ltmp653:
## BB#3:
	##DEBUG_VALUE: new2d_ArrayObject:xsize <- %R14D
	.loc	12 639 1 is_stmt 1      ## pyhlhdf_common.c:639:1
	addq	$32, %rsp
	popq	%rbx
	popq	%r14
Ltmp654:
	popq	%rbp
	retq
Ltmp655:
LBB31_4:
	##DEBUG_VALUE: new2d_ArrayObject:xsize <- %R14D
	callq	___stack_chk_fail
Lfunc_end31:
	.cfi_endproc

	.section	__TEXT,__cstring,cstring_literals
L_.str:                                 ## @.str
	.asciz	"char"

L_.str.1:                               ## @.str.1
	.asciz	"uchar"

L_.str.2:                               ## @.str.2
	.asciz	"short"

L_.str.3:                               ## @.str.3
	.asciz	"ushort"

L_.str.4:                               ## @.str.4
	.asciz	"int"

L_.str.5:                               ## @.str.5
	.asciz	"uint"

L_.str.6:                               ## @.str.6
	.asciz	"long"

L_.str.7:                               ## @.str.7
	.asciz	"ulong"

L_.str.8:                               ## @.str.8
	.asciz	"float"

L_.str.9:                               ## @.str.9
	.asciz	"double"

L_.str.10:                              ## @.str.10
	.asciz	"Unsupported datatype '%c'\n"

L_.str.11:                              ## @.str.11
	.asciz	"schar"

L_.str.12:                              ## @.str.12
	.asciz	"Unsupported type %s\n"
